(lp0
(dp1
S'VectorTime'
p2
F0.00015282630920410156
sS'k'
p3
I5
sS'SerialTime'
p4
F0.03737902641296387
sS'n'
p5
I5
sa(dp6
g2
F0.0001399517059326172
sg3
I6
sg4
F0.06755185127258301
sg5
I5
sa(dp7
g2
F0.00016999244689941406
sg3
I7
sg4
F0.06577205657958984
sg5
I5
sa(dp8
g2
F0.0001308917999267578
sg3
I8
sg4
F0.026363134384155273
sg5
I5
sa(dp9
g2
F0.00015592575073242188
sg3
I9
sg4
F0.10422801971435547
sg5
I5
sa(dp10
g2
F0.00013303756713867188
sg3
I10
sg4
F0.07382416725158691
sg5
I5
sa(dp11
g2
F0.0001239776611328125
sg3
I11
sg4
F0.1967329978942871
sg5
I5
sa(dp12
g2
F0.00012493133544921875
sg3
I12
sg4
F0.15764784812927246
sg5
I5
sa(dp13
g2
F0.00016689300537109375
sg3
I13
sg4
F0.22104692459106445
sg5
I5
sa(dp14
g2
F0.0001499652862548828
sg3
I14
sg4
F0.10049200057983398
sg5
I5
sa(dp15
g2
F0.0001659393310546875
sg3
I15
sg4
F0.18901515007019043
sg5
I5
sa(dp16
g2
F0.00016617774963378906
sg3
I16
sg4
F0.28806400299072266
sg5
I5
sa(dp17
g2
F0.0001308917999267578
sg3
I17
sg4
F0.15448307991027832
sg5
I5
sa(dp18
g2
F0.00013399124145507812
sg3
I18
sg4
F0.27925586700439453
sg5
I5
sa(dp19
g2
F0.0001270771026611328
sg3
I19
sg4
F0.12996411323547363
sg5
I5
sa(dp20
g2
F0.0001480579376220703
sg3
I20
sg4
F0.31556105613708496
sg5
I5
sa(dp21
g2
F0.00013899803161621094
sg3
I21
sg4
F0.23627996444702148
sg5
I5
sa(dp22
g2
F0.00018787384033203125
sg3
I22
sg4
F0.30259203910827637
sg5
I5
sa(dp23
g2
F0.0001461505889892578
sg3
I23
sg4
F0.3312220573425293
sg5
I5
sa(dp24
g2
F0.00012612342834472656
sg3
I24
sg4
F0.30931901931762695
sg5
I5
sa(dp25
g2
F0.0001380443572998047
sg3
I25
sg4
F0.2934858798980713
sg5
I5
sa(dp26
g2
F0.00015497207641601562
sg3
I26
sg4
F0.49514198303222656
sg5
I5
sa(dp27
g2
F0.00013399124145507812
sg3
I27
sg4
F0.32357096672058105
sg5
I5
sa(dp28
g2
F0.0001590251922607422
sg3
I28
sg4
F0.4817931652069092
sg5
I5
sa(dp29
g2
F0.0001590251922607422
sg3
I29
sg4
F0.5062451362609863
sg5
I5
sa(dp30
g2
F0.00017499923706054688
sg3
I30
sg4
F0.45267486572265625
sg5
I5
sa(dp31
g2
F0.00014591217041015625
sg3
I31
sg4
F0.47542595863342285
sg5
I5
sa(dp32
g2
F0.00014400482177734375
sg3
I32
sg4
F0.5652899742126465
sg5
I5
sa(dp33
g2
F0.00016498565673828125
sg3
I33
sg4
F0.6451559066772461
sg5
I5
sa(dp34
g2
F0.0001819133758544922
sg3
I34
sg4
F0.6386260986328125
sg5
I5
sa(dp35
g2
F0.00015783309936523438
sg3
I35
sg4
F1.0805649757385254
sg5
I5
sa(dp36
g2
F0.00015997886657714844
sg3
I36
sg4
F0.5583832263946533
sg5
I5
sa(dp37
g2
F0.00015783309936523438
sg3
I37
sg4
F0.9472358226776123
sg5
I5
sa(dp38
g2
F0.00013899803161621094
sg3
I38
sg4
F0.5971848964691162
sg5
I5
sa(dp39
g2
F0.0001537799835205078
sg3
I39
sg4
F0.5817399024963379
sg5
I5
sa(dp40
g2
F0.0001499652862548828
sg3
I40
sg4
F1.2139148712158203
sg5
I5
sa(dp41
g2
F0.0001938343048095703
sg3
I41
sg4
F1.210404872894287
sg5
I5
sa(dp42
g2
F0.00015306472778320312
sg3
I42
sg4
F2.0945780277252197
sg5
I5
sa(dp43
g2
F0.00019502639770507812
sg3
I43
sg4
F2.020442008972168
sg5
I5
sa(dp44
g2
F0.0002448558807373047
sg3
I44
sg4
F0.877720832824707
sg5
I5
sa(dp45
g2
F0.00017690658569335938
sg3
I45
sg4
F1.2643887996673584
sg5
I5
sa(dp46
g2
F0.000186920166015625
sg3
I46
sg4
F1.3045721054077148
sg5
I5
sa(dp47
g2
F0.00018405914306640625
sg3
I47
sg4
F1.7356390953063965
sg5
I5
sa(dp48
g2
F0.00017595291137695312
sg3
I48
sg4
F2.4148361682891846
sg5
I5
sa(dp49
g2
F0.00018310546875
sg3
I49
sg4
F1.701462984085083
sg5
I5
sa(dp50
g2
F0.0001239776611328125
sg3
I5
sg4
F0.04798698425292969
sg5
I6
sa(dp51
g2
F0.0001480579376220703
sg3
I6
sg4
F0.04828000068664551
sg5
I6
sa(dp52
g2
F0.0001220703125
sg3
I7
sg4
F0.05836200714111328
sg5
I6
sa(dp53
g2
F0.00014901161193847656
sg3
I8
sg4
F0.0649878978729248
sg5
I6
sa(dp54
g2
F0.00019288063049316406
sg3
I9
sg4
F0.06436920166015625
sg5
I6
sa(dp55
g2
F0.0001571178436279297
sg3
I10
sg4
F0.11628198623657227
sg5
I6
sa(dp56
g2
F0.0001239776611328125
sg3
I11
sg4
F0.1341838836669922
sg5
I6
sa(dp57
g2
F0.00016307830810546875
sg3
I12
sg4
F0.1329970359802246
sg5
I6
sa(dp58
g2
F0.0001239776611328125
sg3
I13
sg4
F0.14747905731201172
sg5
I6
sa(dp59
g2
F0.00014901161193847656
sg3
I14
sg4
F0.11494112014770508
sg5
I6
sa(dp60
g2
F0.00012922286987304688
sg3
I15
sg4
F0.08649301528930664
sg5
I6
sa(dp61
g2
F0.0001239776611328125
sg3
I16
sg4
F0.2959439754486084
sg5
I6
sa(dp62
g2
F0.00015306472778320312
sg3
I17
sg4
F0.22875189781188965
sg5
I6
sa(dp63
g2
F0.0001499652862548828
sg3
I18
sg4
F0.23996210098266602
sg5
I6
sa(dp64
g2
F0.0001800060272216797
sg3
I19
sg4
F0.21446681022644043
sg5
I6
sa(dp65
g2
F0.0001571178436279297
sg3
I20
sg4
F0.22663497924804688
sg5
I6
sa(dp66
g2
F0.00014400482177734375
sg3
I21
sg4
F0.25978612899780273
sg5
I6
sa(dp67
g2
F0.00013303756713867188
sg3
I22
sg4
F0.2152099609375
sg5
I6
sa(dp68
g2
F0.0001628398895263672
sg3
I23
sg4
F0.5102641582489014
sg5
I6
sa(dp69
g2
F0.0001659393310546875
sg3
I24
sg4
F0.31301403045654297
sg5
I6
sa(dp70
g2
F0.00015997886657714844
sg3
I25
sg4
F0.6078119277954102
sg5
I6
sa(dp71
g2
F0.00015401840209960938
sg3
I26
sg4
F0.3068060874938965
sg5
I6
sa(dp72
g2
F0.0001399517059326172
sg3
I27
sg4
F0.429779052734375
sg5
I6
sa(dp73
g2
F0.00015401840209960938
sg3
I28
sg4
F0.42957305908203125
sg5
I6
sa(dp74
g2
F0.0002288818359375
sg3
I29
sg4
F0.7415080070495605
sg5
I6
sa(dp75
g2
F0.0001571178436279297
sg3
I30
sg4
F0.5034389495849609
sg5
I6
sa(dp76
g2
F0.0001690387725830078
sg3
I31
sg4
F0.5141801834106445
sg5
I6
sa(dp77
g2
F0.00014209747314453125
sg3
I32
sg4
F0.9996559619903564
sg5
I6
sa(dp78
g2
F0.00016379356384277344
sg3
I33
sg4
F0.5086188316345215
sg5
I6
sa(dp79
g2
F0.00016689300537109375
sg3
I34
sg4
F0.5799407958984375
sg5
I6
sa(dp80
g2
F0.00018787384033203125
sg3
I35
sg4
F1.3043031692504883
sg5
I6
sa(dp81
g2
F0.0002181529998779297
sg3
I36
sg4
F0.7293250560760498
sg5
I6
sa(dp82
g2
F0.0001850128173828125
sg3
I37
sg4
F0.7250730991363525
sg5
I6
sa(dp83
g2
F0.00016498565673828125
sg3
I38
sg4
F0.8226790428161621
sg5
I6
sa(dp84
g2
F0.0002040863037109375
sg3
I39
sg4
F0.9733700752258301
sg5
I6
sa(dp85
g2
F0.0001690387725830078
sg3
I40
sg4
F0.8594748973846436
sg5
I6
sa(dp86
g2
F0.00016999244689941406
sg3
I41
sg4
F0.7886900901794434
sg5
I6
sa(dp87
g2
F0.00014209747314453125
sg3
I42
sg4
F1.139312982559204
sg5
I6
sa(dp88
g2
F0.00015497207641601562
sg3
I43
sg4
F1.3162260055541992
sg5
I6
sa(dp89
g2
F0.00014710426330566406
sg3
I44
sg4
F1.0814850330352783
sg5
I6
sa(dp90
g2
F0.0002338886260986328
sg3
I45
sg4
F1.0282189846038818
sg5
I6
sa(dp91
g2
F0.00017404556274414062
sg3
I46
sg4
F1.6088440418243408
sg5
I6
sa(dp92
g2
F0.00014519691467285156
sg3
I47
sg4
F1.126788854598999
sg5
I6
sa(dp93
g2
F0.00018095970153808594
sg3
I48
sg4
F2.442563056945801
sg5
I6
sa(dp94
g2
F0.000164031982421875
sg3
I49
sg4
F1.5996010303497314
sg5
I6
sa(dp95
g2
F0.00011587142944335938
sg3
I5
sg4
F0.029847145080566406
sg5
I7
sa(dp96
g2
F0.00015592575073242188
sg3
I6
sg4
F0.04617619514465332
sg5
I7
sa(dp97
g2
F0.00011992454528808594
sg3
I7
sg4
F0.04322099685668945
sg5
I7
sa(dp98
g2
F0.00013303756713867188
sg3
I8
sg4
F0.14252400398254395
sg5
I7
sa(dp99
g2
F0.00015687942504882812
sg3
I9
sg4
F0.08877396583557129
sg5
I7
sa(dp100
g2
F0.00013780593872070312
sg3
I10
sg4
F0.23352408409118652
sg5
I7
sa(dp101
g2
F0.00014209747314453125
sg3
I11
sg4
F0.08700895309448242
sg5
I7
sa(dp102
g2
F0.0001399517059326172
sg3
I12
sg4
F0.10816812515258789
sg5
I7
sa(dp103
g2
F0.0001518726348876953
sg3
I13
sg4
F0.18422412872314453
sg5
I7
sa(dp104
g2
F0.0001380443572998047
sg3
I14
sg4
F0.12161993980407715
sg5
I7
sa(dp105
g2
F0.0001289844512939453
sg3
I15
sg4
F0.16502594947814941
sg5
I7
sa(dp106
g2
F0.00015592575073242188
sg3
I16
sg4
F0.24091196060180664
sg5
I7
sa(dp107
g2
F0.00015306472778320312
sg3
I17
sg4
F0.19199299812316895
sg5
I7
sa(dp108
g2
F0.00013303756713867188
sg3
I18
sg4
F0.23270392417907715
sg5
I7
sa(dp109
g2
F0.00012683868408203125
sg3
I19
sg4
F0.18637704849243164
sg5
I7
sa(dp110
g2
F0.00015401840209960938
sg3
I20
sg4
F0.3889141082763672
sg5
I7
sa(dp111
g2
F0.00015878677368164062
sg3
I21
sg4
F0.41259288787841797
sg5
I7
sa(dp112
g2
F0.0001590251922607422
sg3
I22
sg4
F0.253342866897583
sg5
I7
sa(dp113
g2
F0.0001251697540283203
sg3
I23
sg4
F0.4126300811767578
sg5
I7
sa(dp114
g2
F0.00019311904907226562
sg3
I24
sg4
F0.38452982902526855
sg5
I7
sa(dp115
g2
F0.00013589859008789062
sg3
I25
sg4
F0.2727060317993164
sg5
I7
sa(dp116
g2
F0.0001418590545654297
sg3
I26
sg4
F0.26426100730895996
sg5
I7
sa(dp117
g2
F0.0001430511474609375
sg3
I27
sg4
F0.3784799575805664
sg5
I7
sa(dp118
g2
F0.00014209747314453125
sg3
I28
sg4
F0.44599294662475586
sg5
I7
sa(dp119
g2
F0.0001881122589111328
sg3
I29
sg4
F0.6259238719940186
sg5
I7
sa(dp120
g2
F0.00015115737915039062
sg3
I30
sg4
F1.014936923980713
sg5
I7
sa(dp121
g2
F0.00019097328186035156
sg3
I31
sg4
F0.6323010921478271
sg5
I7
sa(dp122
g2
F0.00018715858459472656
sg3
I32
sg4
F0.8627150058746338
sg5
I7
sa(dp123
g2
F0.00015115737915039062
sg3
I33
sg4
F0.5057699680328369
sg5
I7
sa(dp124
g2
F0.0001380443572998047
sg3
I34
sg4
F0.7412610054016113
sg5
I7
sa(dp125
g2
F0.00019288063049316406
sg3
I35
sg4
F0.6798851490020752
sg5
I7
sa(dp126
g2
F0.0001900196075439453
sg3
I36
sg4
F0.7366929054260254
sg5
I7
sa(dp127
g2
F0.00014400482177734375
sg3
I37
sg4
F0.9505078792572021
sg5
I7
sa(dp128
g2
F0.0001461505889892578
sg3
I38
sg4
F0.8360369205474854
sg5
I7
sa(dp129
g2
F0.00019097328186035156
sg3
I39
sg4
F1.3119990825653076
sg5
I7
sa(dp130
g2
F0.0003008842468261719
sg3
I40
sg4
F0.977586030960083
sg5
I7
sa(dp131
g2
F0.00015115737915039062
sg3
I41
sg4
F1.4681689739227295
sg5
I7
sa(dp132
g2
F0.00014090538024902344
sg3
I42
sg4
F1.0908870697021484
sg5
I7
sa(dp133
g2
F0.00014591217041015625
sg3
I43
sg4
F1.0924999713897705
sg5
I7
sa(dp134
g2
F0.00016307830810546875
sg3
I44
sg4
F1.1841628551483154
sg5
I7
sa(dp135
g2
F0.00015878677368164062
sg3
I45
sg4
F1.6725330352783203
sg5
I7
sa(dp136
g2
F0.00018095970153808594
sg3
I46
sg4
F1.1502809524536133
sg5
I7
sa(dp137
g2
F0.0001461505889892578
sg3
I47
sg4
F1.5790159702301025
sg5
I7
sa(dp138
g2
F0.00022411346435546875
sg3
I48
sg4
F1.0434439182281494
sg5
I7
sa(dp139
g2
F0.0001938343048095703
sg3
I49
sg4
F1.0426228046417236
sg5
I7
sa(dp140
g2
F0.0001609325408935547
sg3
I5
sg4
F0.022614002227783203
sg5
I8
sa(dp141
g2
F0.00012803077697753906
sg3
I6
sg4
F0.06833815574645996
sg5
I8
sa(dp142
g2
F0.00011801719665527344
sg3
I7
sg4
F0.0572359561920166
sg5
I8
sa(dp143
g2
F0.0002598762512207031
sg3
I8
sg4
F0.05669713020324707
sg5
I8
sa(dp144
g2
F0.0001220703125
sg3
I9
sg4
F0.1303708553314209
sg5
I8
sa(dp145
g2
F0.00013709068298339844
sg3
I10
sg4
F0.11262202262878418
sg5
I8
sa(dp146
g2
F0.0001399517059326172
sg3
I11
sg4
F0.1051950454711914
sg5
I8
sa(dp147
g2
F0.00015282630920410156
sg3
I12
sg4
F0.18602299690246582
sg5
I8
sa(dp148
g2
F0.0001590251922607422
sg3
I13
sg4
F0.0755460262298584
sg5
I8
sa(dp149
g2
F0.00017499923706054688
sg3
I14
sg4
F0.16188311576843262
sg5
I8
sa(dp150
g2
F0.00014400482177734375
sg3
I15
sg4
F0.19694995880126953
sg5
I8
sa(dp151
g2
F0.00014019012451171875
sg3
I16
sg4
F0.2954740524291992
sg5
I8
sa(dp152
g2
F0.00015115737915039062
sg3
I17
sg4
F0.23031282424926758
sg5
I8
sa(dp153
g2
F0.00017690658569335938
sg3
I18
sg4
F0.21960997581481934
sg5
I8
sa(dp154
g2
F0.0001499652862548828
sg3
I19
sg4
F0.383242130279541
sg5
I8
sa(dp155
g2
F0.00013494491577148438
sg3
I20
sg4
F0.2837550640106201
sg5
I8
sa(dp156
g2
F0.0001480579376220703
sg3
I21
sg4
F0.2771739959716797
sg5
I8
sa(dp157
g2
F0.00012993812561035156
sg3
I22
sg4
F0.42771410942077637
sg5
I8
sa(dp158
g2
F0.00015592575073242188
sg3
I23
sg4
F0.5344030857086182
sg5
I8
sa(dp159
g2
F0.00012993812561035156
sg3
I24
sg4
F0.3367469310760498
sg5
I8
sa(dp160
g2
F0.00016498565673828125
sg3
I25
sg4
F0.4255678653717041
sg5
I8
sa(dp161
g2
F0.00014781951904296875
sg3
I26
sg4
F0.3348088264465332
sg5
I8
sa(dp162
g2
F0.0002009868621826172
sg3
I27
sg4
F0.5791900157928467
sg5
I8
sa(dp163
g2
F0.0001399517059326172
sg3
I28
sg4
F0.5917248725891113
sg5
I8
sa(dp164
g2
F0.0001480579376220703
sg3
I29
sg4
F0.5283830165863037
sg5
I8
sa(dp165
g2
F0.0001678466796875
sg3
I30
sg4
F0.808351993560791
sg5
I8
sa(dp166
g2
F0.00020003318786621094
sg3
I31
sg4
F0.7384490966796875
sg5
I8
sa(dp167
g2
F0.0001628398895263672
sg3
I32
sg4
F0.9140751361846924
sg5
I8
sa(dp168
g2
F0.00015497207641601562
sg3
I33
sg4
F0.47743797302246094
sg5
I8
sa(dp169
g2
F0.0001709461212158203
sg3
I34
sg4
F0.7344281673431396
sg5
I8
sa(dp170
g2
F0.0001430511474609375
sg3
I35
sg4
F0.5893721580505371
sg5
I8
sa(dp171
g2
F0.00015306472778320312
sg3
I36
sg4
F0.851283073425293
sg5
I8
sa(dp172
g2
F0.00015687942504882812
sg3
I37
sg4
F0.7819559574127197
sg5
I8
sa(dp173
g2
F0.00019502639770507812
sg3
I38
sg4
F0.9478552341461182
sg5
I8
sa(dp174
g2
F0.00017213821411132812
sg3
I39
sg4
F1.255854845046997
sg5
I8
sa(dp175
g2
F0.00016617774963378906
sg3
I40
sg4
F0.836230993270874
sg5
I8
sa(dp176
g2
F0.00016307830810546875
sg3
I41
sg4
F0.8450438976287842
sg5
I8
sa(dp177
g2
F0.00017189979553222656
sg3
I42
sg4
F1.4549241065979004
sg5
I8
sa(dp178
g2
F0.00020003318786621094
sg3
I43
sg4
F1.525458812713623
sg5
I8
sa(dp179
g2
F0.00017690658569335938
sg3
I44
sg4
F1.2280170917510986
sg5
I8
sa(dp180
g2
F0.0002110004425048828
sg3
I45
sg4
F1.5192198753356934
sg5
I8
sa(dp181
g2
F0.0002720355987548828
sg3
I46
sg4
F1.9661319255828857
sg5
I8
sa(dp182
g2
F0.00017690658569335938
sg3
I47
sg4
F1.7111878395080566
sg5
I8
sa(dp183
g2
F0.00019884109497070312
sg3
I48
sg4
F1.1520869731903076
sg5
I8
sa(dp184
g2
F0.0002009868621826172
sg3
I49
sg4
F1.270772933959961
sg5
I8
sa(dp185
g2
F0.000141143798828125
sg3
I5
sg4
F0.033761024475097656
sg5
I9
sa(dp186
g2
F0.00014591217041015625
sg3
I6
sg4
F0.07132983207702637
sg5
I9
sa(dp187
g2
F0.00013017654418945312
sg3
I7
sg4
F0.07953691482543945
sg5
I9
sa(dp188
g2
F0.00012803077697753906
sg3
I8
sg4
F0.11541318893432617
sg5
I9
sa(dp189
g2
F0.00012993812561035156
sg3
I9
sg4
F0.06753396987915039
sg5
I9
sa(dp190
g2
F0.0001609325408935547
sg3
I10
sg4
F0.10024809837341309
sg5
I9
sa(dp191
g2
F0.00013494491577148438
sg3
I11
sg4
F0.19001197814941406
sg5
I9
sa(dp192
g2
F0.00015282630920410156
sg3
I12
sg4
F0.14544081687927246
sg5
I9
sa(dp193
g2
F0.0001361370086669922
sg3
I13
sg4
F0.13542890548706055
sg5
I9
sa(dp194
g2
F0.00015211105346679688
sg3
I14
sg4
F0.1313798427581787
sg5
I9
sa(dp195
g2
F0.00030803680419921875
sg3
I15
sg4
F0.20547795295715332
sg5
I9
sa(dp196
g2
F0.00016307830810546875
sg3
I16
sg4
F0.37478017807006836
sg5
I9
sa(dp197
g2
F0.00014495849609375
sg3
I17
sg4
F0.3840188980102539
sg5
I9
sa(dp198
g2
F0.00017905235290527344
sg3
I18
sg4
F0.3679080009460449
sg5
I9
sa(dp199
g2
F0.00020599365234375
sg3
I19
sg4
F0.4369168281555176
sg5
I9
sa(dp200
g2
F0.00013399124145507812
sg3
I20
sg4
F0.2813680171966553
sg5
I9
sa(dp201
g2
F0.00015783309936523438
sg3
I21
sg4
F0.3048851490020752
sg5
I9
sa(dp202
g2
F0.0001800060272216797
sg3
I22
sg4
F0.44631290435791016
sg5
I9
sa(dp203
g2
F0.00017595291137695312
sg3
I23
sg4
F0.5050151348114014
sg5
I9
sa(dp204
g2
F0.0001628398895263672
sg3
I24
sg4
F0.4642610549926758
sg5
I9
sa(dp205
g2
F0.0001919269561767578
sg3
I25
sg4
F0.5959959030151367
sg5
I9
sa(dp206
g2
F0.00013399124145507812
sg3
I26
sg4
F0.560528039932251
sg5
I9
sa(dp207
g2
F0.0001659393310546875
sg3
I27
sg4
F0.8125860691070557
sg5
I9
sa(dp208
g2
F0.00023102760314941406
sg3
I28
sg4
F0.7846570014953613
sg5
I9
sa(dp209
g2
F0.00016188621520996094
sg3
I29
sg4
F0.800678014755249
sg5
I9
sa(dp210
g2
F0.00019502639770507812
sg3
I30
sg4
F0.7405719757080078
sg5
I9
sa(dp211
g2
F0.00013899803161621094
sg3
I31
sg4
F0.7850179672241211
sg5
I9
sa(dp212
g2
F0.00016808509826660156
sg3
I32
sg4
F0.7787270545959473
sg5
I9
sa(dp213
g2
F0.00015807151794433594
sg3
I33
sg4
F0.9320540428161621
sg5
I9
sa(dp214
g2
F0.00015401840209960938
sg3
I34
sg4
F0.9890639781951904
sg5
I9
sa(dp215
g2
F0.00017595291137695312
sg3
I35
sg4
F0.8596699237823486
sg5
I9
sa(dp216
g2
F0.00019693374633789062
sg3
I36
sg4
F1.1796159744262695
sg5
I9
sa(dp217
g2
F0.0001659393310546875
sg3
I37
sg4
F1.2136650085449219
sg5
I9
sa(dp218
g2
F0.000164031982421875
sg3
I38
sg4
F1.1537160873413086
sg5
I9
sa(dp219
g2
F0.0001430511474609375
sg3
I39
sg4
F0.9959640502929688
sg5
I9
sa(dp220
g2
F0.00013709068298339844
sg3
I40
sg4
F0.987022876739502
sg5
I9
sa(dp221
g2
F0.00014710426330566406
sg3
I41
sg4
F1.4469640254974365
sg5
I9
sa(dp222
g2
F0.00016307830810546875
sg3
I42
sg4
F0.837238073348999
sg5
I9
sa(dp223
g2
F0.00021696090698242188
sg3
I43
sg4
F1.65702486038208
sg5
I9
sa(dp224
g2
F0.00015997886657714844
sg3
I44
sg4
F1.7417957782745361
sg5
I9
sa(dp225
g2
F0.00021195411682128906
sg3
I45
sg4
F1.658949851989746
sg5
I9
sa(dp226
g2
F0.00018787384033203125
sg3
I46
sg4
F1.4508099555969238
sg5
I9
sa(dp227
g2
F0.00020003318786621094
sg3
I47
sg4
F1.616429090499878
sg5
I9
sa(dp228
g2
F0.00015687942504882812
sg3
I48
sg4
F1.6285979747772217
sg5
I9
sa(dp229
g2
F0.0002930164337158203
sg3
I49
sg4
F1.5531229972839355
sg5
I9
sa(dp230
g2
F0.00012302398681640625
sg3
I5
sg4
F0.06050300598144531
sg5
I10
sa(dp231
g2
F0.0001220703125
sg3
I6
sg4
F0.07215690612792969
sg5
I10
sa(dp232
g2
F0.0001430511474609375
sg3
I7
sg4
F0.09242796897888184
sg5
I10
sa(dp233
g2
F0.00016617774963378906
sg3
I8
sg4
F0.13303899765014648
sg5
I10
sa(dp234
g2
F0.00011396408081054688
sg3
I9
sg4
F0.10490798950195312
sg5
I10
sa(dp235
g2
F0.0001461505889892578
sg3
I10
sg4
F0.22837495803833008
sg5
I10
sa(dp236
g2
F0.0001499652862548828
sg3
I11
sg4
F0.18883085250854492
sg5
I10
sa(dp237
g2
F0.00014901161193847656
sg3
I12
sg4
F0.3737518787384033
sg5
I10
sa(dp238
g2
F0.00018310546875
sg3
I13
sg4
F0.2689700126647949
sg5
I10
sa(dp239
g2
F0.00015616416931152344
sg3
I14
sg4
F0.2761058807373047
sg5
I10
sa(dp240
g2
F0.00016117095947265625
sg3
I15
sg4
F0.39723706245422363
sg5
I10
sa(dp241
g2
F0.0002079010009765625
sg3
I16
sg4
F0.2771270275115967
sg5
I10
sa(dp242
g2
F0.0005309581756591797
sg3
I17
sg4
F0.20531988143920898
sg5
I10
sa(dp243
g2
F0.00015401840209960938
sg3
I18
sg4
F0.370790958404541
sg5
I10
sa(dp244
g2
F0.00019598007202148438
sg3
I19
sg4
F0.44146203994750977
sg5
I10
sa(dp245
g2
F0.0001399517059326172
sg3
I20
sg4
F0.3306119441986084
sg5
I10
sa(dp246
g2
F0.00015592575073242188
sg3
I21
sg4
F0.5314459800720215
sg5
I10
sa(dp247
g2
F0.00019097328186035156
sg3
I22
sg4
F0.46173906326293945
sg5
I10
sa(dp248
g2
F0.00020503997802734375
sg3
I23
sg4
F0.3478989601135254
sg5
I10
sa(dp249
g2
F0.00018787384033203125
sg3
I24
sg4
F0.6284160614013672
sg5
I10
sa(dp250
g2
F0.00016999244689941406
sg3
I25
sg4
F0.6114721298217773
sg5
I10
sa(dp251
g2
F0.0001609325408935547
sg3
I26
sg4
F0.5473079681396484
sg5
I10
sa(dp252
g2
F0.00017404556274414062
sg3
I27
sg4
F0.6415250301361084
sg5
I10
sa(dp253
g2
F0.00017213821411132812
sg3
I28
sg4
F0.6620049476623535
sg5
I10
sa(dp254
g2
F0.00014090538024902344
sg3
I29
sg4
F0.7271449565887451
sg5
I10
sa(dp255
g2
F0.0001850128173828125
sg3
I30
sg4
F0.6847438812255859
sg5
I10
sa(dp256
g2
F0.00015687942504882812
sg3
I31
sg4
F0.5612468719482422
sg5
I10
sa(dp257
g2
F0.00015616416931152344
sg3
I32
sg4
F0.8582849502563477
sg5
I10
sa(dp258
g2
F0.00017976760864257812
sg3
I33
sg4
F0.917701005935669
sg5
I10
sa(dp259
g2
F0.00026607513427734375
sg3
I34
sg4
F0.7922558784484863
sg5
I10
sa(dp260
g2
F0.000164031982421875
sg3
I35
sg4
F0.992469072341919
sg5
I10
sa(dp261
g2
F0.000141143798828125
sg3
I36
sg4
F0.6291799545288086
sg5
I10
sa(dp262
g2
F0.000164031982421875
sg3
I37
sg4
F0.8157110214233398
sg5
I10
sa(dp263
g2
F0.00018310546875
sg3
I38
sg4
F1.1225700378417969
sg5
I10
sa(dp264
g2
F0.00014901161193847656
sg3
I39
sg4
F0.6548550128936768
sg5
I10
sa(dp265
g2
F0.00015997886657714844
sg3
I40
sg4
F1.0945930480957031
sg5
I10
sa(dp266
g2
F0.00016117095947265625
sg3
I41
sg4
F1.1846380233764648
sg5
I10
sa(dp267
g2
F0.0001838207244873047
sg3
I42
sg4
F1.67081880569458
sg5
I10
sa(dp268
g2
F0.00015616416931152344
sg3
I43
sg4
F1.3237450122833252
sg5
I10
sa(dp269
g2
F0.00016808509826660156
sg3
I44
sg4
F2.188386917114258
sg5
I10
sa(dp270
g2
F0.0001518726348876953
sg3
I45
sg4
F1.823951005935669
sg5
I10
sa(dp271
g2
F0.0002028942108154297
sg3
I46
sg4
F1.544485092163086
sg5
I10
sa(dp272
g2
F0.0001800060272216797
sg3
I47
sg4
F1.7165729999542236
sg5
I10
sa(dp273
g2
F0.0001971721649169922
sg3
I48
sg4
F2.431359052658081
sg5
I10
sa(dp274
g2
F0.00020503997802734375
sg3
I49
sg4
F1.5738890171051025
sg5
I10
sa(dp275
g2
F0.0002338886260986328
sg3
I5
sg4
F0.055253028869628906
sg5
I11
sa(dp276
g2
F0.00014519691467285156
sg3
I6
sg4
F0.08264994621276855
sg5
I11
sa(dp277
g2
F0.00012087821960449219
sg3
I7
sg4
F0.12466597557067871
sg5
I11
sa(dp278
g2
F0.0001308917999267578
sg3
I8
sg4
F0.07718420028686523
sg5
I11
sa(dp279
g2
F0.000141143798828125
sg3
I9
sg4
F0.14663004875183105
sg5
I11
sa(dp280
g2
F0.00013709068298339844
sg3
I10
sg4
F0.13153505325317383
sg5
I11
sa(dp281
g2
F0.00016307830810546875
sg3
I11
sg4
F0.29428696632385254
sg5
I11
sa(dp282
g2
F0.00014519691467285156
sg3
I12
sg4
F0.22612500190734863
sg5
I11
sa(dp283
g2
F0.0001590251922607422
sg3
I13
sg4
F0.30083179473876953
sg5
I11
sa(dp284
g2
F0.00015807151794433594
sg3
I14
sg4
F0.2487320899963379
sg5
I11
sa(dp285
g2
F0.00015091896057128906
sg3
I15
sg4
F0.2872309684753418
sg5
I11
sa(dp286
g2
F0.0002949237823486328
sg3
I16
sg4
F0.22970008850097656
sg5
I11
sa(dp287
g2
F0.00016689300537109375
sg3
I17
sg4
F0.2919631004333496
sg5
I11
sa(dp288
g2
F0.00016498565673828125
sg3
I18
sg4
F0.5546479225158691
sg5
I11
sa(dp289
g2
F0.00014901161193847656
sg3
I19
sg4
F0.44981908798217773
sg5
I11
sa(dp290
g2
F0.0002040863037109375
sg3
I20
sg4
F0.31885504722595215
sg5
I11
sa(dp291
g2
F0.00016880035400390625
sg3
I21
sg4
F0.46236300468444824
sg5
I11
sa(dp292
g2
F0.00014710426330566406
sg3
I22
sg4
F0.44888901710510254
sg5
I11
sa(dp293
g2
F0.00014209747314453125
sg3
I23
sg4
F0.45566701889038086
sg5
I11
sa(dp294
g2
F0.00013208389282226562
sg3
I24
sg4
F0.6634399890899658
sg5
I11
sa(dp295
g2
F0.0002770423889160156
sg3
I25
sg4
F0.3965320587158203
sg5
I11
sa(dp296
g2
F0.00014400482177734375
sg3
I26
sg4
F0.8317520618438721
sg5
I11
sa(dp297
g2
F0.00013494491577148438
sg3
I27
sg4
F0.7564880847930908
sg5
I11
sa(dp298
g2
F0.00019216537475585938
sg3
I28
sg4
F0.7336630821228027
sg5
I11
sa(dp299
g2
F0.00013399124145507812
sg3
I29
sg4
F0.8731269836425781
sg5
I11
sa(dp300
g2
F0.0002071857452392578
sg3
I30
sg4
F0.7254600524902344
sg5
I11
sa(dp301
g2
F0.00015401840209960938
sg3
I31
sg4
F0.9726879596710205
sg5
I11
sa(dp302
g2
F0.00016188621520996094
sg3
I32
sg4
F0.8172791004180908
sg5
I11
sa(dp303
g2
F0.00017595291137695312
sg3
I33
sg4
F1.1890568733215332
sg5
I11
sa(dp304
g2
F0.00020503997802734375
sg3
I34
sg4
F0.8276710510253906
sg5
I11
sa(dp305
g2
F0.00019216537475585938
sg3
I35
sg4
F1.126598834991455
sg5
I11
sa(dp306
g2
F0.00022292137145996094
sg3
I36
sg4
F1.1701500415802002
sg5
I11
sa(dp307
g2
F0.00017595291137695312
sg3
I37
sg4
F1.6756811141967773
sg5
I11
sa(dp308
g2
F0.0001468658447265625
sg3
I38
sg4
F1.3441557884216309
sg5
I11
sa(dp309
g2
F0.00021910667419433594
sg3
I39
sg4
F0.8554089069366455
sg5
I11
sa(dp310
g2
F0.0001900196075439453
sg3
I40
sg4
F1.4456040859222412
sg5
I11
sa(dp311
g2
F0.00015306472778320312
sg3
I41
sg4
F1.4848270416259766
sg5
I11
sa(dp312
g2
F0.0001971721649169922
sg3
I42
sg4
F2.145108938217163
sg5
I11
sa(dp313
g2
F0.00015020370483398438
sg3
I43
sg4
F1.3246068954467773
sg5
I11
sa(dp314
g2
F0.0002028942108154297
sg3
I44
sg4
F1.9261667728424072
sg5
I11
sa(dp315
g2
F0.00014400482177734375
sg3
I45
sg4
F1.958711862564087
sg5
I11
sa(dp316
g2
F0.00016188621520996094
sg3
I46
sg4
F1.6418681144714355
sg5
I11
sa(dp317
g2
F0.00017714500427246094
sg3
I47
sg4
F2.628587007522583
sg5
I11
sa(dp318
g2
F0.00018405914306640625
sg3
I48
sg4
F3.2947230339050293
sg5
I11
sa(dp319
g2
F0.00018215179443359375
sg3
I49
sg4
F1.934438943862915
sg5
I11
sa(dp320
g2
F0.00016999244689941406
sg3
I5
sg4
F0.058463096618652344
sg5
I12
sa(dp321
g2
F0.00015306472778320312
sg3
I6
sg4
F0.11455392837524414
sg5
I12
sa(dp322
g2
F0.0001430511474609375
sg3
I7
sg4
F0.11717796325683594
sg5
I12
sa(dp323
g2
F0.00013685226440429688
sg3
I8
sg4
F0.05572104454040527
sg5
I12
sa(dp324
g2
F0.00012493133544921875
sg3
I9
sg4
F0.14631104469299316
sg5
I12
sa(dp325
g2
F0.000164031982421875
sg3
I10
sg4
F0.2003490924835205
sg5
I12
sa(dp326
g2
F0.00015497207641601562
sg3
I11
sg4
F0.15317392349243164
sg5
I12
sa(dp327
g2
F0.0002009868621826172
sg3
I12
sg4
F0.25206995010375977
sg5
I12
sa(dp328
g2
F0.00017499923706054688
sg3
I13
sg4
F0.2891380786895752
sg5
I12
sa(dp329
g2
F0.0002799034118652344
sg3
I14
sg4
F0.3156750202178955
sg5
I12
sa(dp330
g2
F0.00013399124145507812
sg3
I15
sg4
F0.25164198875427246
sg5
I12
sa(dp331
g2
F0.00014495849609375
sg3
I16
sg4
F0.3360891342163086
sg5
I12
sa(dp332
g2
F0.0001571178436279297
sg3
I17
sg4
F0.31577491760253906
sg5
I12
sa(dp333
g2
F0.0001780986785888672
sg3
I18
sg4
F0.3384079933166504
sg5
I12
sa(dp334
g2
F0.00013899803161621094
sg3
I19
sg4
F0.4515402317047119
sg5
I12
sa(dp335
g2
F0.0001399517059326172
sg3
I20
sg4
F0.33615708351135254
sg5
I12
sa(dp336
g2
F0.0001990795135498047
sg3
I21
sg4
F0.6589150428771973
sg5
I12
sa(dp337
g2
F0.00020503997802734375
sg3
I22
sg4
F0.5708699226379395
sg5
I12
sa(dp338
g2
F0.00019598007202148438
sg3
I23
sg4
F0.5792281627655029
sg5
I12
sa(dp339
g2
F0.000186920166015625
sg3
I24
sg4
F0.4944889545440674
sg5
I12
sa(dp340
g2
F0.00018286705017089844
sg3
I25
sg4
F0.7974832057952881
sg5
I12
sa(dp341
g2
F0.00017213821411132812
sg3
I26
sg4
F0.4411330223083496
sg5
I12
sa(dp342
g2
F0.0002951622009277344
sg3
I27
sg4
F0.9089150428771973
sg5
I12
sa(dp343
g2
F0.00017309188842773438
sg3
I28
sg4
F0.7491021156311035
sg5
I12
sa(dp344
g2
F0.00015807151794433594
sg3
I29
sg4
F0.9284021854400635
sg5
I12
sa(dp345
g2
F0.00014591217041015625
sg3
I30
sg4
F0.6909811496734619
sg5
I12
sa(dp346
g2
F0.00021004676818847656
sg3
I31
sg4
F0.4905281066894531
sg5
I12
sa(dp347
g2
F0.00019788742065429688
sg3
I32
sg4
F1.0437791347503662
sg5
I12
sa(dp348
g2
F0.00017213821411132812
sg3
I33
sg4
F0.6928298473358154
sg5
I12
sa(dp349
g2
F0.0001678466796875
sg3
I34
sg4
F1.1465990543365479
sg5
I12
sa(dp350
g2
F0.00018405914306640625
sg3
I35
sg4
F1.575340986251831
sg5
I12
sa(dp351
g2
F0.0001728534698486328
sg3
I36
sg4
F1.1788508892059326
sg5
I12
sa(dp352
g2
F0.0001499652862548828
sg3
I37
sg4
F1.184312105178833
sg5
I12
sa(dp353
g2
F0.00019097328186035156
sg3
I38
sg4
F1.293943166732788
sg5
I12
sa(dp354
g2
F0.0002219676971435547
sg3
I39
sg4
F0.9810547828674316
sg5
I12
sa(dp355
g2
F0.00019598007202148438
sg3
I40
sg4
F1.554858922958374
sg5
I12
sa(dp356
g2
F0.00018215179443359375
sg3
I41
sg4
F1.4745659828186035
sg5
I12
sa(dp357
g2
F0.00017881393432617188
sg3
I42
sg4
F1.405730962753296
sg5
I12
sa(dp358
g2
F0.00017595291137695312
sg3
I43
sg4
F1.8565869331359863
sg5
I12
sa(dp359
g2
F0.00018095970153808594
sg3
I44
sg4
F1.6681151390075684
sg5
I12
sa(dp360
g2
F0.0001609325408935547
sg3
I45
sg4
F2.1507890224456787
sg5
I12
sa(dp361
g2
F0.00017714500427246094
sg3
I46
sg4
F2.1208410263061523
sg5
I12
sa(dp362
g2
F0.0001800060272216797
sg3
I47
sg4
F2.1967179775238037
sg5
I12
sa(dp363
g2
F0.0001609325408935547
sg3
I48
sg4
F2.5760719776153564
sg5
I12
sa(dp364
g2
F0.00022602081298828125
sg3
I49
sg4
F1.6697239875793457
sg5
I12
sa(dp365
g2
F0.0001270771026611328
sg3
I5
sg4
F0.03490900993347168
sg5
I13
sa(dp366
g2
F0.00013518333435058594
sg3
I6
sg4
F0.09004783630371094
sg5
I13
sa(dp367
g2
F0.00015807151794433594
sg3
I7
sg4
F0.1237649917602539
sg5
I13
sa(dp368
g2
F0.00015592575073242188
sg3
I8
sg4
F0.14027810096740723
sg5
I13
sa(dp369
g2
F0.0001571178436279297
sg3
I9
sg4
F0.1278548240661621
sg5
I13
sa(dp370
g2
F0.00015020370483398438
sg3
I10
sg4
F0.16693592071533203
sg5
I13
sa(dp371
g2
F0.0001571178436279297
sg3
I11
sg4
F0.1905670166015625
sg5
I13
sa(dp372
g2
F0.00014901161193847656
sg3
I12
sg4
F0.1799631118774414
sg5
I13
sa(dp373
g2
F0.00012993812561035156
sg3
I13
sg4
F0.20353984832763672
sg5
I13
sa(dp374
g2
F0.00013303756713867188
sg3
I14
sg4
F0.28523898124694824
sg5
I13
sa(dp375
g2
F0.00016188621520996094
sg3
I15
sg4
F0.36018800735473633
sg5
I13
sa(dp376
g2
F0.0001499652862548828
sg3
I16
sg4
F0.33826684951782227
sg5
I13
sa(dp377
g2
F0.00022792816162109375
sg3
I17
sg4
F0.37224698066711426
sg5
I13
sa(dp378
g2
F0.00017499923706054688
sg3
I18
sg4
F0.5056619644165039
sg5
I13
sa(dp379
g2
F0.0001761913299560547
sg3
I19
sg4
F0.3921530246734619
sg5
I13
sa(dp380
g2
F0.00023794174194335938
sg3
I20
sg4
F0.5719621181488037
sg5
I13
sa(dp381
g2
F0.000164031982421875
sg3
I21
sg4
F0.6267268657684326
sg5
I13
sa(dp382
g2
F0.0001621246337890625
sg3
I22
sg4
F0.7330491542816162
sg5
I13
sa(dp383
g2
F0.0002090930938720703
sg3
I23
sg4
F0.599963903427124
sg5
I13
sa(dp384
g2
F0.000164031982421875
sg3
I24
sg4
F0.7213659286499023
sg5
I13
sa(dp385
g2
F0.0002028942108154297
sg3
I25
sg4
F0.6182091236114502
sg5
I13
sa(dp386
g2
F0.0001590251922607422
sg3
I26
sg4
F0.6992840766906738
sg5
I13
sa(dp387
g2
F0.00021791458129882812
sg3
I27
sg4
F0.7046949863433838
sg5
I13
sa(dp388
g2
F0.00018095970153808594
sg3
I28
sg4
F0.7109940052032471
sg5
I13
sa(dp389
g2
F0.0001919269561767578
sg3
I29
sg4
F0.8607230186462402
sg5
I13
sa(dp390
g2
F0.00014901161193847656
sg3
I30
sg4
F1.3029580116271973
sg5
I13
sa(dp391
g2
F0.00017499923706054688
sg3
I31
sg4
F1.0018961429595947
sg5
I13
sa(dp392
g2
F0.0001590251922607422
sg3
I32
sg4
F0.9826278686523438
sg5
I13
sa(dp393
g2
F0.0001468658447265625
sg3
I33
sg4
F1.0148491859436035
sg5
I13
sa(dp394
g2
F0.0001499652862548828
sg3
I34
sg4
F0.9233310222625732
sg5
I13
sa(dp395
g2
F0.000225067138671875
sg3
I35
sg4
F1.0610291957855225
sg5
I13
sa(dp396
g2
F0.00019788742065429688
sg3
I36
sg4
F1.5932459831237793
sg5
I13
sa(dp397
g2
F0.0002460479736328125
sg3
I37
sg4
F1.238692045211792
sg5
I13
sa(dp398
g2
F0.00021600723266601562
sg3
I38
sg4
F1.1956310272216797
sg5
I13
sa(dp399
g2
F0.0001709461212158203
sg3
I39
sg4
F1.0095851421356201
sg5
I13
sa(dp400
g2
F0.00015878677368164062
sg3
I40
sg4
F1.6608550548553467
sg5
I13
sa(dp401
g2
F0.0001571178436279297
sg3
I41
sg4
F1.3714969158172607
sg5
I13
sa(dp402
g2
F0.00018596649169921875
sg3
I42
sg4
F1.4400601387023926
sg5
I13
sa(dp403
g2
F0.00015592575073242188
sg3
I43
sg4
F2.017256021499634
sg5
I13
sa(dp404
g2
F0.00023794174194335938
sg3
I44
sg4
F1.5428378582000732
sg5
I13
sa(dp405
g2
F0.0001800060272216797
sg3
I45
sg4
F1.3524169921875
sg5
I13
sa(dp406
g2
F0.00015592575073242188
sg3
I46
sg4
F2.2568891048431396
sg5
I13
sa(dp407
g2
F0.0001780986785888672
sg3
I47
sg4
F2.242716073989868
sg5
I13
sa(dp408
g2
F0.00019502639770507812
sg3
I48
sg4
F2.158266067504883
sg5
I13
sa(dp409
g2
F0.0001838207244873047
sg3
I49
sg4
F2.4616239070892334
sg5
I13
sa(dp410
g2
F0.00015091896057128906
sg3
I5
sg4
F0.06640100479125977
sg5
I14
sa(dp411
g2
F0.00013017654418945312
sg3
I6
sg4
F0.04498887062072754
sg5
I14
sa(dp412
g2
F0.00015401840209960938
sg3
I7
sg4
F0.08604097366333008
sg5
I14
sa(dp413
g2
F0.00012993812561035156
sg3
I8
sg4
F0.12247300148010254
sg5
I14
sa(dp414
g2
F0.000125885009765625
sg3
I9
sg4
F0.3436141014099121
sg5
I14
sa(dp415
g2
F0.00023794174194335938
sg3
I10
sg4
F0.19411611557006836
sg5
I14
sa(dp416
g2
F0.00014495849609375
sg3
I11
sg4
F0.17506098747253418
sg5
I14
sa(dp417
g2
F0.0001468658447265625
sg3
I12
sg4
F0.24255704879760742
sg5
I14
sa(dp418
g2
F0.00018596649169921875
sg3
I13
sg4
F0.3220551013946533
sg5
I14
sa(dp419
g2
F0.00020885467529296875
sg3
I14
sg4
F0.3507649898529053
sg5
I14
sa(dp420
g2
F0.00023794174194335938
sg3
I15
sg4
F0.3592400550842285
sg5
I14
sa(dp421
g2
F0.0002338886260986328
sg3
I16
sg4
F0.46258997917175293
sg5
I14
sa(dp422
g2
F0.00013899803161621094
sg3
I17
sg4
F0.34101200103759766
sg5
I14
sa(dp423
g2
F0.00018405914306640625
sg3
I18
sg4
F0.39920616149902344
sg5
I14
sa(dp424
g2
F0.0001430511474609375
sg3
I19
sg4
F0.5546901226043701
sg5
I14
sa(dp425
g2
F0.00022792816162109375
sg3
I20
sg4
F0.6292829513549805
sg5
I14
sa(dp426
g2
F0.00015306472778320312
sg3
I21
sg4
F0.5728318691253662
sg5
I14
sa(dp427
g2
F0.0002040863037109375
sg3
I22
sg4
F0.6473920345306396
sg5
I14
sa(dp428
g2
F0.00021004676818847656
sg3
I23
sg4
F0.5916581153869629
sg5
I14
sa(dp429
g2
F0.00015783309936523438
sg3
I24
sg4
F0.6520781517028809
sg5
I14
sa(dp430
g2
F0.00017309188842773438
sg3
I25
sg4
F0.8466460704803467
sg5
I14
sa(dp431
g2
F0.0002338886260986328
sg3
I26
sg4
F0.9396181106567383
sg5
I14
sa(dp432
g2
F0.00015807151794433594
sg3
I27
sg4
F0.6651349067687988
sg5
I14
sa(dp433
g2
F0.00020694732666015625
sg3
I28
sg4
F1.0174579620361328
sg5
I14
sa(dp434
g2
F0.0001659393310546875
sg3
I29
sg4
F0.7909431457519531
sg5
I14
sa(dp435
g2
F0.00019097328186035156
sg3
I30
sg4
F0.843829870223999
sg5
I14
sa(dp436
g2
F0.00018906593322753906
sg3
I31
sg4
F1.3658080101013184
sg5
I14
sa(dp437
g2
F0.00014710426330566406
sg3
I32
sg4
F1.0723259449005127
sg5
I14
sa(dp438
g2
F0.0001480579376220703
sg3
I33
sg4
F1.0210239887237549
sg5
I14
sa(dp439
g2
F0.00018095970153808594
sg3
I34
sg4
F1.0738170146942139
sg5
I14
sa(dp440
g2
F0.0001659393310546875
sg3
I35
sg4
F1.7552039623260498
sg5
I14
sa(dp441
g2
F0.0001690387725830078
sg3
I36
sg4
F1.1038031578063965
sg5
I14
sa(dp442
g2
F0.00017404556274414062
sg3
I37
sg4
F1.4390408992767334
sg5
I14
sa(dp443
g2
F0.0001990795135498047
sg3
I38
sg4
F1.9995081424713135
sg5
I14
sa(dp444
g2
F0.00016617774963378906
sg3
I39
sg4
F1.7279250621795654
sg5
I14
sa(dp445
g2
F0.00019311904907226562
sg3
I40
sg4
F1.9952609539031982
sg5
I14
sa(dp446
g2
F0.00017189979553222656
sg3
I41
sg4
F1.7742371559143066
sg5
I14
sa(dp447
g2
F0.00015282630920410156
sg3
I42
sg4
F2.158730983734131
sg5
I14
sa(dp448
g2
F0.0002999305725097656
sg3
I43
sg4
F1.732874870300293
sg5
I14
sa(dp449
g2
F0.0001690387725830078
sg3
I44
sg4
F2.5623841285705566
sg5
I14
sa(dp450
g2
F0.00019097328186035156
sg3
I45
sg4
F2.367460012435913
sg5
I14
sa(dp451
g2
F0.00022101402282714844
sg3
I46
sg4
F1.8771960735321045
sg5
I14
sa(dp452
g2
F0.00015997886657714844
sg3
I47
sg4
F2.56557297706604
sg5
I14
sa(dp453
g2
F0.00021195411682128906
sg3
I48
sg4
F2.5077450275421143
sg5
I14
sa(dp454
g2
F0.00019288063049316406
sg3
I49
sg4
F2.4158031940460205
sg5
I14
sa(dp455
g2
F0.00015401840209960938
sg3
I5
sg4
F0.12996315956115723
sg5
I15
sa(dp456
g2
F0.00014019012451171875
sg3
I6
sg4
F0.09361100196838379
sg5
I15
sa(dp457
g2
F0.00018310546875
sg3
I7
sg4
F0.17455101013183594
sg5
I15
sa(dp458
g2
F0.0001480579376220703
sg3
I8
sg4
F0.1379718780517578
sg5
I15
sa(dp459
g2
F0.00014710426330566406
sg3
I9
sg4
F0.2349379062652588
sg5
I15
sa(dp460
g2
F0.00021195411682128906
sg3
I10
sg4
F0.23982000350952148
sg5
I15
sa(dp461
g2
F0.00013899803161621094
sg3
I11
sg4
F0.1868140697479248
sg5
I15
sa(dp462
g2
F0.0001552104949951172
sg3
I12
sg4
F0.28046202659606934
sg5
I15
sa(dp463
g2
F0.00014710426330566406
sg3
I13
sg4
F0.2617349624633789
sg5
I15
sa(dp464
g2
F0.0001468658447265625
sg3
I14
sg4
F0.2442162036895752
sg5
I15
sa(dp465
g2
F0.0001621246337890625
sg3
I15
sg4
F0.37007689476013184
sg5
I15
sa(dp466
g2
F0.00020599365234375
sg3
I16
sg4
F0.46323609352111816
sg5
I15
sa(dp467
g2
F0.00014901161193847656
sg3
I17
sg4
F0.7724909782409668
sg5
I15
sa(dp468
g2
F0.00015616416931152344
sg3
I18
sg4
F0.4141049385070801
sg5
I15
sa(dp469
g2
F0.00016999244689941406
sg3
I19
sg4
F0.33568286895751953
sg5
I15
sa(dp470
g2
F0.00017690658569335938
sg3
I20
sg4
F0.4841160774230957
sg5
I15
sa(dp471
g2
F0.00016307830810546875
sg3
I21
sg4
F0.6358609199523926
sg5
I15
sa(dp472
g2
F0.00018715858459472656
sg3
I22
sg4
F0.9992969036102295
sg5
I15
sa(dp473
g2
F0.0001518726348876953
sg3
I23
sg4
F0.6683359146118164
sg5
I15
sa(dp474
g2
F0.00021791458129882812
sg3
I24
sg4
F0.8982210159301758
sg5
I15
sa(dp475
g2
F0.00015497207641601562
sg3
I25
sg4
F1.121938943862915
sg5
I15
sa(dp476
g2
F0.00016999244689941406
sg3
I26
sg4
F0.9510788917541504
sg5
I15
sa(dp477
g2
F0.00019693374633789062
sg3
I27
sg4
F0.9593479633331299
sg5
I15
sa(dp478
g2
F0.0002231597900390625
sg3
I28
sg4
F1.229233980178833
sg5
I15
sa(dp479
g2
F0.00020313262939453125
sg3
I29
sg4
F0.6904349327087402
sg5
I15
sa(dp480
g2
F0.0001990795135498047
sg3
I30
sg4
F1.1990110874176025
sg5
I15
sa(dp481
g2
F0.00015020370483398438
sg3
I31
sg4
F0.9622199535369873
sg5
I15
sa(dp482
g2
F0.00018095970153808594
sg3
I32
sg4
F1.0906219482421875
sg5
I15
sa(dp483
g2
F0.00018095970153808594
sg3
I33
sg4
F0.9914238452911377
sg5
I15
sa(dp484
g2
F0.0001881122589111328
sg3
I34
sg4
F1.1000618934631348
sg5
I15
sa(dp485
g2
F0.00017690658569335938
sg3
I35
sg4
F1.7445828914642334
sg5
I15
sa(dp486
g2
F0.00015592575073242188
sg3
I36
sg4
F1.0570809841156006
sg5
I15
sa(dp487
g2
F0.0002689361572265625
sg3
I37
sg4
F1.5679049491882324
sg5
I15
sa(dp488
g2
F0.00018405914306640625
sg3
I38
sg4
F1.9752581119537354
sg5
I15
sa(dp489
g2
F0.00019407272338867188
sg3
I39
sg4
F1.3958289623260498
sg5
I15
sa(dp490
g2
F0.00016188621520996094
sg3
I40
sg4
F2.3693220615386963
sg5
I15
sa(dp491
g2
F0.00022602081298828125
sg3
I41
sg4
F1.606429100036621
sg5
I15
sa(dp492
g2
F0.00015091896057128906
sg3
I42
sg4
F2.013730049133301
sg5
I15
sa(dp493
g2
F0.0001780986785888672
sg3
I43
sg4
F1.885551929473877
sg5
I15
sa(dp494
g2
F0.0002429485321044922
sg3
I44
sg4
F2.793609142303467
sg5
I15
sa(dp495
g2
F0.0002129077911376953
sg3
I45
sg4
F2.838222026824951
sg5
I15
sa(dp496
g2
F0.0001728534698486328
sg3
I46
sg4
F2.3635520935058594
sg5
I15
sa(dp497
g2
F0.00022101402282714844
sg3
I47
sg4
F2.1517980098724365
sg5
I15
sa(dp498
g2
F0.0001990795135498047
sg3
I48
sg4
F2.3322548866271973
sg5
I15
sa(dp499
g2
F0.0001938343048095703
sg3
I49
sg4
F2.0267038345336914
sg5
I15
sa(dp500
g2
F0.00012087821960449219
sg3
I5
sg4
F0.06363201141357422
sg5
I16
sa(dp501
g2
F0.00011396408081054688
sg3
I6
sg4
F0.18480992317199707
sg5
I16
sa(dp502
g2
F0.00013709068298339844
sg3
I7
sg4
F0.1262071132659912
sg5
I16
sa(dp503
g2
F0.00013780593872070312
sg3
I8
sg4
F0.12886381149291992
sg5
I16
sa(dp504
g2
F0.00016498565673828125
sg3
I9
sg4
F0.24760794639587402
sg5
I16
sa(dp505
g2
F0.00013184547424316406
sg3
I10
sg4
F0.29624199867248535
sg5
I16
sa(dp506
g2
F0.00017714500427246094
sg3
I11
sg4
F0.17926502227783203
sg5
I16
sa(dp507
g2
F0.0001690387725830078
sg3
I12
sg4
F0.26481103897094727
sg5
I16
sa(dp508
g2
F0.00020194053649902344
sg3
I13
sg4
F0.2908780574798584
sg5
I16
sa(dp509
g2
F0.0001800060272216797
sg3
I14
sg4
F0.2836132049560547
sg5
I16
sa(dp510
g2
F0.0001571178436279297
sg3
I15
sg4
F0.3414280414581299
sg5
I16
sa(dp511
g2
F0.0001399517059326172
sg3
I16
sg4
F0.3890950679779053
sg5
I16
sa(dp512
g2
F0.00017905235290527344
sg3
I17
sg4
F0.5100870132446289
sg5
I16
sa(dp513
g2
F0.00019788742065429688
sg3
I18
sg4
F0.4456048011779785
sg5
I16
sa(dp514
g2
F0.00019121170043945312
sg3
I19
sg4
F0.5436298847198486
sg5
I16
sa(dp515
g2
F0.0001590251922607422
sg3
I20
sg4
F0.4273500442504883
sg5
I16
sa(dp516
g2
F0.00015211105346679688
sg3
I21
sg4
F0.7242300510406494
sg5
I16
sa(dp517
g2
F0.00017595291137695312
sg3
I22
sg4
F0.6633741855621338
sg5
I16
sa(dp518
g2
F0.00018405914306640625
sg3
I23
sg4
F0.5111339092254639
sg5
I16
sa(dp519
g2
F0.00020003318786621094
sg3
I24
sg4
F0.7933139801025391
sg5
I16
sa(dp520
g2
F0.0002410411834716797
sg3
I25
sg4
F0.7677171230316162
sg5
I16
sa(dp521
g2
F0.00016307830810546875
sg3
I26
sg4
F0.8980159759521484
sg5
I16
sa(dp522
g2
F0.00015401840209960938
sg3
I27
sg4
F1.171638011932373
sg5
I16
sa(dp523
g2
F0.0001971721649169922
sg3
I28
sg4
F0.8156728744506836
sg5
I16
sa(dp524
g2
F0.0001819133758544922
sg3
I29
sg4
F1.3628880977630615
sg5
I16
sa(dp525
g2
F0.0001881122589111328
sg3
I30
sg4
F1.478729009628296
sg5
I16
sa(dp526
g2
F0.0002269744873046875
sg3
I31
sg4
F1.1975820064544678
sg5
I16
sa(dp527
g2
F0.00017499923706054688
sg3
I32
sg4
F1.6224009990692139
sg5
I16
sa(dp528
g2
F0.00018095970153808594
sg3
I33
sg4
F1.5839531421661377
sg5
I16
sa(dp529
g2
F0.0001800060272216797
sg3
I34
sg4
F1.461967945098877
sg5
I16
sa(dp530
g2
F0.0002601146697998047
sg3
I35
sg4
F1.415116786956787
sg5
I16
sa(dp531
g2
F0.0002579689025878906
sg3
I36
sg4
F2.17753005027771
sg5
I16
sa(dp532
g2
F0.00020003318786621094
sg3
I37
sg4
F1.6542999744415283
sg5
I16
sa(dp533
g2
F0.0001709461212158203
sg3
I38
sg4
F1.590522050857544
sg5
I16
sa(dp534
g2
F0.00016498565673828125
sg3
I39
sg4
F1.3120238780975342
sg5
I16
sa(dp535
g2
F0.0001690387725830078
sg3
I40
sg4
F1.5543830394744873
sg5
I16
sa(dp536
g2
F0.0002129077911376953
sg3
I41
sg4
F2.297253131866455
sg5
I16
sa(dp537
g2
F0.0001609325408935547
sg3
I42
sg4
F1.8146672248840332
sg5
I16
sa(dp538
g2
F0.0001728534698486328
sg3
I43
sg4
F2.3314571380615234
sg5
I16
sa(dp539
g2
F0.00021886825561523438
sg3
I44
sg4
F2.6426191329956055
sg5
I16
sa(dp540
g2
F0.00019693374633789062
sg3
I45
sg4
F3.544219970703125
sg5
I16
sa(dp541
g2
F0.00020503997802734375
sg3
I46
sg4
F2.364027976989746
sg5
I16
sa(dp542
g2
F0.00018596649169921875
sg3
I47
sg4
F4.40073299407959
sg5
I16
sa(dp543
g2
F0.00019311904907226562
sg3
I48
sg4
F3.673474073410034
sg5
I16
sa(dp544
g2
F0.00019097328186035156
sg3
I49
sg4
F3.06569504737854
sg5
I16
sa(dp545
g2
F0.00013589859008789062
sg3
I5
sg4
F0.1043691635131836
sg5
I17
sa(dp546
g2
F0.0003199577331542969
sg3
I6
sg4
F0.09861183166503906
sg5
I17
sa(dp547
g2
F0.00013589859008789062
sg3
I7
sg4
F0.14365196228027344
sg5
I17
sa(dp548
g2
F0.00014781951904296875
sg3
I8
sg4
F0.13923096656799316
sg5
I17
sa(dp549
g2
F0.00021886825561523438
sg3
I9
sg4
F0.23602795600891113
sg5
I17
sa(dp550
g2
F0.0001800060272216797
sg3
I10
sg4
F0.19460606575012207
sg5
I17
sa(dp551
g2
F0.00015306472778320312
sg3
I11
sg4
F0.2141728401184082
sg5
I17
sa(dp552
g2
F0.00016021728515625
sg3
I12
sg4
F0.3264608383178711
sg5
I17
sa(dp553
g2
F0.00015592575073242188
sg3
I13
sg4
F0.2748401165008545
sg5
I17
sa(dp554
g2
F0.00017905235290527344
sg3
I14
sg4
F0.4156761169433594
sg5
I17
sa(dp555
g2
F0.00017595291137695312
sg3
I15
sg4
F0.4670541286468506
sg5
I17
sa(dp556
g2
F0.00014209747314453125
sg3
I16
sg4
F0.4051940441131592
sg5
I17
sa(dp557
g2
F0.00017786026000976562
sg3
I17
sg4
F0.50736403465271
sg5
I17
sa(dp558
g2
F0.00017499923706054688
sg3
I18
sg4
F0.6347808837890625
sg5
I17
sa(dp559
g2
F0.0001780986785888672
sg3
I19
sg4
F0.7052390575408936
sg5
I17
sa(dp560
g2
F0.00015282630920410156
sg3
I20
sg4
F0.7397041320800781
sg5
I17
sa(dp561
g2
F0.0001690387725830078
sg3
I21
sg4
F0.8882009983062744
sg5
I17
sa(dp562
g2
F0.0001881122589111328
sg3
I22
sg4
F0.9500758647918701
sg5
I17
sa(dp563
g2
F0.0001938343048095703
sg3
I23
sg4
F0.6683828830718994
sg5
I17
sa(dp564
g2
F0.000164031982421875
sg3
I24
sg4
F0.7912509441375732
sg5
I17
sa(dp565
g2
F0.00023221969604492188
sg3
I25
sg4
F1.2486379146575928
sg5
I17
sa(dp566
g2
F0.00016808509826660156
sg3
I26
sg4
F0.645622968673706
sg5
I17
sa(dp567
g2
F0.0001881122589111328
sg3
I27
sg4
F0.796734094619751
sg5
I17
sa(dp568
g2
F0.00016999244689941406
sg3
I28
sg4
F0.8841290473937988
sg5
I17
sa(dp569
g2
F0.00015497207641601562
sg3
I29
sg4
F1.0614299774169922
sg5
I17
sa(dp570
g2
F0.000347137451171875
sg3
I30
sg4
F1.6130070686340332
sg5
I17
sa(dp571
g2
F0.00015306472778320312
sg3
I31
sg4
F1.6763579845428467
sg5
I17
sa(dp572
g2
F0.00019502639770507812
sg3
I32
sg4
F1.3702290058135986
sg5
I17
sa(dp573
g2
F0.0001780986785888672
sg3
I33
sg4
F1.3122060298919678
sg5
I17
sa(dp574
g2
F0.00015783309936523438
sg3
I34
sg4
F1.501533031463623
sg5
I17
sa(dp575
g2
F0.00020003318786621094
sg3
I35
sg4
F2.524367094039917
sg5
I17
sa(dp576
g2
F0.00017595291137695312
sg3
I36
sg4
F1.7613439559936523
sg5
I17
sa(dp577
g2
F0.000164031982421875
sg3
I37
sg4
F2.424617052078247
sg5
I17
sa(dp578
g2
F0.0002589225769042969
sg3
I38
sg4
F1.8538379669189453
sg5
I17
sa(dp579
g2
F0.00017309188842773438
sg3
I39
sg4
F2.0986149311065674
sg5
I17
sa(dp580
g2
F0.00022101402282714844
sg3
I40
sg4
F2.3323841094970703
sg5
I17
sa(dp581
g2
F0.00017380714416503906
sg3
I41
sg4
F2.0187299251556396
sg5
I17
sa(dp582
g2
F0.00018787384033203125
sg3
I42
sg4
F2.7774031162261963
sg5
I17
sa(dp583
g2
F0.0002028942108154297
sg3
I43
sg4
F2.2143280506134033
sg5
I17
sa(dp584
g2
F0.00021505355834960938
sg3
I44
sg4
F2.4645230770111084
sg5
I17
sa(dp585
g2
F0.00022101402282714844
sg3
I45
sg4
F3.277010917663574
sg5
I17
sa(dp586
g2
F0.00022912025451660156
sg3
I46
sg4
F2.302731990814209
sg5
I17
sa(dp587
g2
F0.0001971721649169922
sg3
I47
sg4
F2.787044048309326
sg5
I17
sa(dp588
g2
F0.000186920166015625
sg3
I48
sg4
F2.8079380989074707
sg5
I17
sa(dp589
g2
F0.0001919269561767578
sg3
I49
sg4
F2.0223381519317627
sg5
I17
sa(dp590
g2
F0.00015997886657714844
sg3
I5
sg4
F0.09255003929138184
sg5
I18
sa(dp591
g2
F0.0001590251922607422
sg3
I6
sg4
F0.09548211097717285
sg5
I18
sa(dp592
g2
F0.00014591217041015625
sg3
I7
sg4
F0.13059711456298828
sg5
I18
sa(dp593
g2
F0.000125885009765625
sg3
I8
sg4
F0.15792202949523926
sg5
I18
sa(dp594
g2
F0.0001430511474609375
sg3
I9
sg4
F0.20492911338806152
sg5
I18
sa(dp595
g2
F0.0001327991485595703
sg3
I10
sg4
F0.24096393585205078
sg5
I18
sa(dp596
g2
F0.00017595291137695312
sg3
I11
sg4
F0.46202516555786133
sg5
I18
sa(dp597
g2
F0.00013589859008789062
sg3
I12
sg4
F0.38076305389404297
sg5
I18
sa(dp598
g2
F0.0001819133758544922
sg3
I13
sg4
F0.4149308204650879
sg5
I18
sa(dp599
g2
F0.0001671314239501953
sg3
I14
sg4
F0.31047606468200684
sg5
I18
sa(dp600
g2
F0.0002071857452392578
sg3
I15
sg4
F0.47307705879211426
sg5
I18
sa(dp601
g2
F0.00019407272338867188
sg3
I16
sg4
F0.369549036026001
sg5
I18
sa(dp602
g2
F0.0001590251922607422
sg3
I17
sg4
F0.6110689640045166
sg5
I18
sa(dp603
g2
F0.0001590251922607422
sg3
I18
sg4
F0.47009801864624023
sg5
I18
sa(dp604
g2
F0.0001380443572998047
sg3
I19
sg4
F0.4888730049133301
sg5
I18
sa(dp605
g2
F0.0001819133758544922
sg3
I20
sg4
F0.47892117500305176
sg5
I18
sa(dp606
g2
F0.00014281272888183594
sg3
I21
sg4
F0.6774678230285645
sg5
I18
sa(dp607
g2
F0.00016307830810546875
sg3
I22
sg4
F0.7310380935668945
sg5
I18
sa(dp608
g2
F0.0001800060272216797
sg3
I23
sg4
F0.6310579776763916
sg5
I18
sa(dp609
g2
F0.00018596649169921875
sg3
I24
sg4
F0.7899670600891113
sg5
I18
sa(dp610
g2
F0.00023508071899414062
sg3
I25
sg4
F1.0622069835662842
sg5
I18
sa(dp611
g2
F0.0001881122589111328
sg3
I26
sg4
F0.7133088111877441
sg5
I18
sa(dp612
g2
F0.00018095970153808594
sg3
I27
sg4
F1.4369359016418457
sg5
I18
sa(dp613
g2
F0.0001900196075439453
sg3
I28
sg4
F1.3498039245605469
sg5
I18
sa(dp614
g2
F0.0002231597900390625
sg3
I29
sg4
F1.1401989459991455
sg5
I18
sa(dp615
g2
F0.00024580955505371094
sg3
I30
sg4
F1.4424138069152832
sg5
I18
sa(dp616
g2
F0.00018715858459472656
sg3
I31
sg4
F1.746816873550415
sg5
I18
sa(dp617
g2
F0.00015997886657714844
sg3
I32
sg4
F1.416715145111084
sg5
I18
sa(dp618
g2
F0.00017786026000976562
sg3
I33
sg4
F1.3921570777893066
sg5
I18
sa(dp619
g2
F0.0001709461212158203
sg3
I34
sg4
F1.979423999786377
sg5
I18
sa(dp620
g2
F0.00019407272338867188
sg3
I35
sg4
F2.047363042831421
sg5
I18
sa(dp621
g2
F0.00019812583923339844
sg3
I36
sg4
F2.4746789932250977
sg5
I18
sa(dp622
g2
F0.0002181529998779297
sg3
I37
sg4
F2.034144878387451
sg5
I18
sa(dp623
g2
F0.00026488304138183594
sg3
I38
sg4
F1.9743108749389648
sg5
I18
sa(dp624
g2
F0.0002181529998779297
sg3
I39
sg4
F2.1475989818573
sg5
I18
sa(dp625
g2
F0.00017118453979492188
sg3
I40
sg4
F2.180349826812744
sg5
I18
sa(dp626
g2
F0.0002529621124267578
sg3
I41
sg4
F2.415566921234131
sg5
I18
sa(dp627
g2
F0.00016307830810546875
sg3
I42
sg4
F2.1329431533813477
sg5
I18
sa(dp628
g2
F0.00021076202392578125
sg3
I43
sg4
F1.840507984161377
sg5
I18
sa(dp629
g2
F0.00017309188842773438
sg3
I44
sg4
F2.4580280780792236
sg5
I18
sa(dp630
g2
F0.0001900196075439453
sg3
I45
sg4
F2.256481885910034
sg5
I18
sa(dp631
g2
F0.0001862049102783203
sg3
I46
sg4
F2.263705015182495
sg5
I18
sa(dp632
g2
F0.0001850128173828125
sg3
I47
sg4
F2.4291558265686035
sg5
I18
sa(dp633
g2
F0.0002372264862060547
sg3
I48
sg4
F2.7044129371643066
sg5
I18
sa(dp634
g2
F0.0001780986785888672
sg3
I49
sg4
F2.6406710147857666
sg5
I18
sa(dp635
g2
F0.0001289844512939453
sg3
I5
sg4
F0.172957181930542
sg5
I19
sa(dp636
g2
F0.00014019012451171875
sg3
I6
sg4
F0.11591792106628418
sg5
I19
sa(dp637
g2
F0.00015497207641601562
sg3
I7
sg4
F0.11317801475524902
sg5
I19
sa(dp638
g2
F0.0001499652862548828
sg3
I8
sg4
F0.2842221260070801
sg5
I19
sa(dp639
g2
F0.0002231597900390625
sg3
I9
sg4
F0.22702980041503906
sg5
I19
sa(dp640
g2
F0.00020003318786621094
sg3
I10
sg4
F0.27510690689086914
sg5
I19
sa(dp641
g2
F0.0002689361572265625
sg3
I11
sg4
F0.4065248966217041
sg5
I19
sa(dp642
g2
F0.00016808509826660156
sg3
I12
sg4
F0.30931997299194336
sg5
I19
sa(dp643
g2
F0.0001461505889892578
sg3
I13
sg4
F0.30810999870300293
sg5
I19
sa(dp644
g2
F0.00016808509826660156
sg3
I14
sg4
F0.6361329555511475
sg5
I19
sa(dp645
g2
F0.00013899803161621094
sg3
I15
sg4
F0.749708890914917
sg5
I19
sa(dp646
g2
F0.00014209747314453125
sg3
I16
sg4
F0.5846669673919678
sg5
I19
sa(dp647
g2
F0.00019121170043945312
sg3
I17
sg4
F0.6366770267486572
sg5
I19
sa(dp648
g2
F0.0001780986785888672
sg3
I18
sg4
F0.8913791179656982
sg5
I19
sa(dp649
g2
F0.00020313262939453125
sg3
I19
sg4
F0.6463429927825928
sg5
I19
sa(dp650
g2
F0.00014495849609375
sg3
I20
sg4
F0.5653610229492188
sg5
I19
sa(dp651
g2
F0.00020503997802734375
sg3
I21
sg4
F0.6002490520477295
sg5
I19
sa(dp652
g2
F0.0001690387725830078
sg3
I22
sg4
F0.6576180458068848
sg5
I19
sa(dp653
g2
F0.00015783309936523438
sg3
I23
sg4
F1.0323691368103027
sg5
I19
sa(dp654
g2
F0.00021982192993164062
sg3
I24
sg4
F0.791316032409668
sg5
I19
sa(dp655
g2
F0.00017595291137695312
sg3
I25
sg4
F0.6783549785614014
sg5
I19
sa(dp656
g2
F0.00015997886657714844
sg3
I26
sg4
F1.0157430171966553
sg5
I19
sa(dp657
g2
F0.0001690387725830078
sg3
I27
sg4
F1.2375550270080566
sg5
I19
sa(dp658
g2
F0.0001709461212158203
sg3
I28
sg4
F1.7901649475097656
sg5
I19
sa(dp659
g2
F0.00019598007202148438
sg3
I29
sg4
F1.4355428218841553
sg5
I19
sa(dp660
g2
F0.00016617774963378906
sg3
I30
sg4
F1.0333750247955322
sg5
I19
sa(dp661
g2
F0.0001690387725830078
sg3
I31
sg4
F1.767822027206421
sg5
I19
sa(dp662
g2
F0.0001609325408935547
sg3
I32
sg4
F1.5380351543426514
sg5
I19
sa(dp663
g2
F0.00015687942504882812
sg3
I33
sg4
F1.4444711208343506
sg5
I19
sa(dp664
g2
F0.00015807151794433594
sg3
I34
sg4
F2.3162989616394043
sg5
I19
sa(dp665
g2
F0.00021195411682128906
sg3
I35
sg4
F2.0655760765075684
sg5
I19
sa(dp666
g2
F0.0002579689025878906
sg3
I36
sg4
F2.5528600215911865
sg5
I19
sa(dp667
g2
F0.00018906593322753906
sg3
I37
sg4
F2.2259860038757324
sg5
I19
sa(dp668
g2
F0.00018596649169921875
sg3
I38
sg4
F2.26794695854187
sg5
I19
sa(dp669
g2
F0.0001888275146484375
sg3
I39
sg4
F2.3925158977508545
sg5
I19
sa(dp670
g2
F0.00021600723266601562
sg3
I40
sg4
F2.8417809009552
sg5
I19
sa(dp671
g2
F0.00020384788513183594
sg3
I41
sg4
F2.694394111633301
sg5
I19
sa(dp672
g2
F0.00016498565673828125
sg3
I42
sg4
F3.0137760639190674
sg5
I19
sa(dp673
g2
F0.00021386146545410156
sg3
I43
sg4
F2.2569169998168945
sg5
I19
sa(dp674
g2
F0.00020599365234375
sg3
I44
sg4
F2.694314956665039
sg5
I19
sa(dp675
g2
F0.00022602081298828125
sg3
I45
sg4
F3.766767978668213
sg5
I19
sa(dp676
g2
F0.00020694732666015625
sg3
I46
sg4
F2.7703399658203125
sg5
I19
sa(dp677
g2
F0.00020599365234375
sg3
I47
sg4
F2.743932008743286
sg5
I19
sa(dp678
g2
F0.00021195411682128906
sg3
I48
sg4
F3.1305041313171387
sg5
I19
sa(dp679
g2
F0.00019812583923339844
sg3
I49
sg4
F5.399439096450806
sg5
I19
sa(dp680
g2
F0.000141143798828125
sg3
I5
sg4
F0.1532120704650879
sg5
I20
sa(dp681
g2
F0.00014901161193847656
sg3
I6
sg4
F0.2594330310821533
sg5
I20
sa(dp682
g2
F0.000164031982421875
sg3
I7
sg4
F0.2291100025177002
sg5
I20
sa(dp683
g2
F0.00016498565673828125
sg3
I8
sg4
F0.10543012619018555
sg5
I20
sa(dp684
g2
F0.00015091896057128906
sg3
I9
sg4
F0.24338507652282715
sg5
I20
sa(dp685
g2
F0.00022792816162109375
sg3
I10
sg4
F0.3569509983062744
sg5
I20
sa(dp686
g2
F0.00015592575073242188
sg3
I11
sg4
F0.5390241146087646
sg5
I20
sa(dp687
g2
F0.0001659393310546875
sg3
I12
sg4
F0.32692980766296387
sg5
I20
sa(dp688
g2
F0.00015997886657714844
sg3
I13
sg4
F0.789139986038208
sg5
I20
sa(dp689
g2
F0.00019598007202148438
sg3
I14
sg4
F0.4134659767150879
sg5
I20
sa(dp690
g2
F0.0001468658447265625
sg3
I15
sg4
F0.5073928833007812
sg5
I20
sa(dp691
g2
F0.0001709461212158203
sg3
I16
sg4
F0.45031309127807617
sg5
I20
sa(dp692
g2
F0.00018978118896484375
sg3
I17
sg4
F0.5624589920043945
sg5
I20
sa(dp693
g2
F0.0001430511474609375
sg3
I18
sg4
F0.717149019241333
sg5
I20
sa(dp694
g2
F0.0001862049102783203
sg3
I19
sg4
F0.9780678749084473
sg5
I20
sa(dp695
g2
F0.00018310546875
sg3
I20
sg4
F0.7989230155944824
sg5
I20
sa(dp696
g2
F0.0002040863037109375
sg3
I21
sg4
F0.9305939674377441
sg5
I20
sa(dp697
g2
F0.0002319812774658203
sg3
I22
sg4
F0.7266879081726074
sg5
I20
sa(dp698
g2
F0.0001709461212158203
sg3
I23
sg4
F0.9713799953460693
sg5
I20
sa(dp699
g2
F0.00021886825561523438
sg3
I24
sg4
F1.0124588012695312
sg5
I20
sa(dp700
g2
F0.00018906593322753906
sg3
I25
sg4
F1.337273120880127
sg5
I20
sa(dp701
g2
F0.00017690658569335938
sg3
I26
sg4
F1.3483030796051025
sg5
I20
sa(dp702
g2
F0.000164031982421875
sg3
I27
sg4
F1.3951411247253418
sg5
I20
sa(dp703
g2
F0.0001652240753173828
sg3
I28
sg4
F1.3971068859100342
sg5
I20
sa(dp704
g2
F0.00015497207641601562
sg3
I29
sg4
F1.5031750202178955
sg5
I20
sa(dp705
g2
F0.00018095970153808594
sg3
I30
sg4
F1.5506601333618164
sg5
I20
sa(dp706
g2
F0.0001690387725830078
sg3
I31
sg4
F1.0218119621276855
sg5
I20
sa(dp707
g2
F0.00016999244689941406
sg3
I32
sg4
F1.615705966949463
sg5
I20
sa(dp708
g2
F0.00018310546875
sg3
I33
sg4
F1.525338888168335
sg5
I20
sa(dp709
g2
F0.00016498565673828125
sg3
I34
sg4
F2.1369781494140625
sg5
I20
sa(dp710
g2
F0.00016188621520996094
sg3
I35
sg4
F2.1233439445495605
sg5
I20
sa(dp711
g2
F0.00017404556274414062
sg3
I36
sg4
F1.983154058456421
sg5
I20
sa(dp712
g2
F0.00021386146545410156
sg3
I37
sg4
F2.363654851913452
sg5
I20
sa(dp713
g2
F0.0001881122589111328
sg3
I38
sg4
F2.950227975845337
sg5
I20
sa(dp714
g2
F0.0002319812774658203
sg3
I39
sg4
F1.7831339836120605
sg5
I20
sa(dp715
g2
F0.00017404556274414062
sg3
I40
sg4
F2.138211965560913
sg5
I20
sa(dp716
g2
F0.0002200603485107422
sg3
I41
sg4
F2.037461996078491
sg5
I20
sa(dp717
g2
F0.00026488304138183594
sg3
I42
sg4
F3.552159070968628
sg5
I20
sa(dp718
g2
F0.0001780986785888672
sg3
I43
sg4
F3.1169350147247314
sg5
I20
sa(dp719
g2
F0.00020003318786621094
sg3
I44
sg4
F4.778429985046387
sg5
I20
sa(dp720
g2
F0.00019502639770507812
sg3
I45
sg4
F2.972642183303833
sg5
I20
sa(dp721
g2
F0.00017189979553222656
sg3
I46
sg4
F3.2777371406555176
sg5
I20
sa(dp722
g2
F0.00020813941955566406
sg3
I47
sg4
F3.0392160415649414
sg5
I20
sa(dp723
g2
F0.00020885467529296875
sg3
I48
sg4
F4.402108907699585
sg5
I20
sa(dp724
g2
F0.00024080276489257812
sg3
I49
sg4
F3.183849811553955
sg5
I20
sa(dp725
g2
F0.0001361370086669922
sg3
I5
sg4
F0.06996989250183105
sg5
I21
sa(dp726
g2
F0.00013685226440429688
sg3
I6
sg4
F0.11700105667114258
sg5
I21
sa(dp727
g2
F0.00014495849609375
sg3
I7
sg4
F0.09794998168945312
sg5
I21
sa(dp728
g2
F0.0001220703125
sg3
I8
sg4
F0.12187409400939941
sg5
I21
sa(dp729
g2
F0.00017905235290527344
sg3
I9
sg4
F0.20067596435546875
sg5
I21
sa(dp730
g2
F0.0002009868621826172
sg3
I10
sg4
F0.15423202514648438
sg5
I21
sa(dp731
g2
F0.00012993812561035156
sg3
I11
sg4
F0.3336341381072998
sg5
I21
sa(dp732
g2
F0.00017690658569335938
sg3
I12
sg4
F0.27814793586730957
sg5
I21
sa(dp733
g2
F0.0001690387725830078
sg3
I13
sg4
F0.40001988410949707
sg5
I21
sa(dp734
g2
F0.00015997886657714844
sg3
I14
sg4
F0.4090890884399414
sg5
I21
sa(dp735
g2
F0.00017690658569335938
sg3
I15
sg4
F0.5753271579742432
sg5
I21
sa(dp736
g2
F0.0001590251922607422
sg3
I16
sg4
F0.6606729030609131
sg5
I21
sa(dp737
g2
F0.00017595291137695312
sg3
I17
sg4
F0.7592720985412598
sg5
I21
sa(dp738
g2
F0.00028586387634277344
sg3
I18
sg4
F0.9378459453582764
sg5
I21
sa(dp739
g2
F0.00016689300537109375
sg3
I19
sg4
F1.271083116531372
sg5
I21
sa(dp740
g2
F0.0001499652862548828
sg3
I20
sg4
F0.9306118488311768
sg5
I21
sa(dp741
g2
F0.00019693374633789062
sg3
I21
sg4
F0.7970008850097656
sg5
I21
sa(dp742
g2
F0.00018405914306640625
sg3
I22
sg4
F0.864389181137085
sg5
I21
sa(dp743
g2
F0.00019598007202148438
sg3
I23
sg4
F1.0034451484680176
sg5
I21
sa(dp744
g2
F0.00017309188842773438
sg3
I24
sg4
F1.037308931350708
sg5
I21
sa(dp745
g2
F0.00016689300537109375
sg3
I25
sg4
F1.3164989948272705
sg5
I21
sa(dp746
g2
F0.0001590251922607422
sg3
I26
sg4
F1.4302730560302734
sg5
I21
sa(dp747
g2
F0.00015687942504882812
sg3
I27
sg4
F1.6197991371154785
sg5
I21
sa(dp748
g2
F0.00016999244689941406
sg3
I28
sg4
F1.478445053100586
sg5
I21
sa(dp749
g2
F0.000244140625
sg3
I29
sg4
F1.436729907989502
sg5
I21
sa(dp750
g2
F0.0002548694610595703
sg3
I30
sg4
F1.4607880115509033
sg5
I21
sa(dp751
g2
F0.0001888275146484375
sg3
I31
sg4
F1.6677038669586182
sg5
I21
sa(dp752
g2
F0.00018596649169921875
sg3
I32
sg4
F1.8411221504211426
sg5
I21
sa(dp753
g2
F0.00019788742065429688
sg3
I33
sg4
F1.4202110767364502
sg5
I21
sa(dp754
g2
F0.00022101402282714844
sg3
I34
sg4
F2.000784158706665
sg5
I21
sa(dp755
g2
F0.0002009868621826172
sg3
I35
sg4
F2.141312837600708
sg5
I21
sa(dp756
g2
F0.00019598007202148438
sg3
I36
sg4
F2.1214330196380615
sg5
I21
sa(dp757
g2
F0.00020813941955566406
sg3
I37
sg4
F2.6617181301116943
sg5
I21
sa(dp758
g2
F0.00021195411682128906
sg3
I38
sg4
F2.2749741077423096
sg5
I21
sa(dp759
g2
F0.0002181529998779297
sg3
I39
sg4
F2.5372228622436523
sg5
I21
sa(dp760
g2
F0.0002429485321044922
sg3
I40
sg4
F2.5103261470794678
sg5
I21
sa(dp761
g2
F0.00020313262939453125
sg3
I41
sg4
F3.013416051864624
sg5
I21
sa(dp762
g2
F0.0001900196075439453
sg3
I42
sg4
F2.261674165725708
sg5
I21
sa(dp763
g2
F0.00021600723266601562
sg3
I43
sg4
F2.6601970195770264
sg5
I21
sa(dp764
g2
F0.00023102760314941406
sg3
I44
sg4
F3.225351095199585
sg5
I21
sa(dp765
g2
F0.00021791458129882812
sg3
I45
sg4
F3.059174060821533
sg5
I21
sa(dp766
g2
F0.00022411346435546875
sg3
I46
sg4
F2.8636960983276367
sg5
I21
sa(dp767
g2
F0.00023293495178222656
sg3
I47
sg4
F3.572219133377075
sg5
I21
sa(dp768
g2
F0.0002181529998779297
sg3
I48
sg4
F3.6413228511810303
sg5
I21
sa(dp769
g2
F0.00020003318786621094
sg3
I49
sg4
F3.7727651596069336
sg5
I21
sa(dp770
g2
F0.00015807151794433594
sg3
I5
sg4
F0.10727405548095703
sg5
I22
sa(dp771
g2
F0.00012803077697753906
sg3
I6
sg4
F0.2330780029296875
sg5
I22
sa(dp772
g2
F0.00014400482177734375
sg3
I7
sg4
F0.15404486656188965
sg5
I22
sa(dp773
g2
F0.00019097328186035156
sg3
I8
sg4
F0.16885709762573242
sg5
I22
sa(dp774
g2
F0.0001659393310546875
sg3
I9
sg4
F0.16976213455200195
sg5
I22
sa(dp775
g2
F0.00018310546875
sg3
I10
sg4
F0.39498400688171387
sg5
I22
sa(dp776
g2
F0.00014710426330566406
sg3
I11
sg4
F0.5786819458007812
sg5
I22
sa(dp777
g2
F0.00015401840209960938
sg3
I12
sg4
F0.48221397399902344
sg5
I22
sa(dp778
g2
F0.0001709461212158203
sg3
I13
sg4
F0.5129401683807373
sg5
I22
sa(dp779
g2
F0.0001399517059326172
sg3
I14
sg4
F0.3182508945465088
sg5
I22
sa(dp780
g2
F0.00015783309936523438
sg3
I15
sg4
F0.6808791160583496
sg5
I22
sa(dp781
g2
F0.00017595291137695312
sg3
I16
sg4
F0.7664721012115479
sg5
I22
sa(dp782
g2
F0.00021004676818847656
sg3
I17
sg4
F0.4430398941040039
sg5
I22
sa(dp783
g2
F0.00017189979553222656
sg3
I18
sg4
F0.8207089900970459
sg5
I22
sa(dp784
g2
F0.00014400482177734375
sg3
I19
sg4
F0.9640600681304932
sg5
I22
sa(dp785
g2
F0.000148773193359375
sg3
I20
sg4
F0.8371481895446777
sg5
I22
sa(dp786
g2
F0.00015306472778320312
sg3
I21
sg4
F0.9552640914916992
sg5
I22
sa(dp787
g2
F0.00018477439880371094
sg3
I22
sg4
F1.3125348091125488
sg5
I22
sa(dp788
g2
F0.0001761913299560547
sg3
I23
sg4
F1.0613648891448975
sg5
I22
sa(dp789
g2
F0.0003120899200439453
sg3
I24
sg4
F1.4181880950927734
sg5
I22
sa(dp790
g2
F0.00022101402282714844
sg3
I25
sg4
F1.4172799587249756
sg5
I22
sa(dp791
g2
F0.00015997886657714844
sg3
I26
sg4
F1.1523308753967285
sg5
I22
sa(dp792
g2
F0.0002338886260986328
sg3
I27
sg4
F1.540482997894287
sg5
I22
sa(dp793
g2
F0.00019311904907226562
sg3
I28
sg4
F2.1087589263916016
sg5
I22
sa(dp794
g2
F0.00017499923706054688
sg3
I29
sg4
F1.4451730251312256
sg5
I22
sa(dp795
g2
F0.00017595291137695312
sg3
I30
sg4
F1.2922489643096924
sg5
I22
sa(dp796
g2
F0.0001888275146484375
sg3
I31
sg4
F1.960386037826538
sg5
I22
sa(dp797
g2
F0.0002181529998779297
sg3
I32
sg4
F1.9809908866882324
sg5
I22
sa(dp798
g2
F0.0002009868621826172
sg3
I33
sg4
F2.4618887901306152
sg5
I22
sa(dp799
g2
F0.0001938343048095703
sg3
I34
sg4
F1.4305691719055176
sg5
I22
sa(dp800
g2
F0.00020599365234375
sg3
I35
sg4
F1.9211878776550293
sg5
I22
sa(dp801
g2
F0.0002079010009765625
sg3
I36
sg4
F2.467618227005005
sg5
I22
sa(dp802
g2
F0.0001919269561767578
sg3
I37
sg4
F2.6760621070861816
sg5
I22
sa(dp803
g2
F0.00018787384033203125
sg3
I38
sg4
F2.2409839630126953
sg5
I22
sa(dp804
g2
F0.0001728534698486328
sg3
I39
sg4
F2.363920211791992
sg5
I22
sa(dp805
g2
F0.00021195411682128906
sg3
I40
sg4
F3.009018898010254
sg5
I22
sa(dp806
g2
F0.00018906593322753906
sg3
I41
sg4
F2.993067979812622
sg5
I22
sa(dp807
g2
F0.0002269744873046875
sg3
I42
sg4
F3.1239311695098877
sg5
I22
sa(dp808
g2
F0.00023412704467773438
sg3
I43
sg4
F2.00445294380188
sg5
I22
sa(dp809
g2
F0.00019097328186035156
sg3
I44
sg4
F3.598546028137207
sg5
I22
sa(dp810
g2
F0.0002620220184326172
sg3
I45
sg4
F2.8202030658721924
sg5
I22
sa(dp811
g2
F0.0002219676971435547
sg3
I46
sg4
F2.885128974914551
sg5
I22
sa(dp812
g2
F0.00017881393432617188
sg3
I47
sg4
F4.148512840270996
sg5
I22
sa(dp813
g2
F0.00020599365234375
sg3
I48
sg4
F3.6839051246643066
sg5
I22
sa(dp814
g2
F0.0002620220184326172
sg3
I49
sg4
F3.795012950897217
sg5
I22
sa(dp815
g2
F0.00015807151794433594
sg3
I5
sg4
F0.09771990776062012
sg5
I23
sa(dp816
g2
F0.00013113021850585938
sg3
I6
sg4
F0.16279196739196777
sg5
I23
sa(dp817
g2
F0.00013709068298339844
sg3
I7
sg4
F0.1597900390625
sg5
I23
sa(dp818
g2
F0.0001690387725830078
sg3
I8
sg4
F0.18971800804138184
sg5
I23
sa(dp819
g2
F0.00015616416931152344
sg3
I9
sg4
F0.39969897270202637
sg5
I23
sa(dp820
g2
F0.00013208389282226562
sg3
I10
sg4
F0.3666188716888428
sg5
I23
sa(dp821
g2
F0.00029397010803222656
sg3
I11
sg4
F0.40080809593200684
sg5
I23
sa(dp822
g2
F0.0001628398895263672
sg3
I12
sg4
F0.42486000061035156
sg5
I23
sa(dp823
g2
F0.00018095970153808594
sg3
I13
sg4
F0.5114598274230957
sg5
I23
sa(dp824
g2
F0.0001819133758544922
sg3
I14
sg4
F0.5701467990875244
sg5
I23
sa(dp825
g2
F0.0001728534698486328
sg3
I15
sg4
F0.6968221664428711
sg5
I23
sa(dp826
g2
F0.0001480579376220703
sg3
I16
sg4
F0.8836300373077393
sg5
I23
sa(dp827
g2
F0.00017595291137695312
sg3
I17
sg4
F0.6526131629943848
sg5
I23
sa(dp828
g2
F0.00015091896057128906
sg3
I18
sg4
F0.8342480659484863
sg5
I23
sa(dp829
g2
F0.0001628398895263672
sg3
I19
sg4
F0.9476008415222168
sg5
I23
sa(dp830
g2
F0.000225067138671875
sg3
I20
sg4
F1.395017147064209
sg5
I23
sa(dp831
g2
F0.0001499652862548828
sg3
I21
sg4
F0.5463559627532959
sg5
I23
sa(dp832
g2
F0.00019311904907226562
sg3
I22
sg4
F1.0315189361572266
sg5
I23
sa(dp833
g2
F0.00016379356384277344
sg3
I23
sg4
F0.7474608421325684
sg5
I23
sa(dp834
g2
F0.00017595291137695312
sg3
I24
sg4
F1.6500351428985596
sg5
I23
sa(dp835
g2
F0.0001590251922607422
sg3
I25
sg4
F1.2464220523834229
sg5
I23
sa(dp836
g2
F0.0002071857452392578
sg3
I26
sg4
F1.541334867477417
sg5
I23
sa(dp837
g2
F0.00019311904907226562
sg3
I27
sg4
F0.7533679008483887
sg5
I23
sa(dp838
g2
F0.0002090930938720703
sg3
I28
sg4
F1.9168369770050049
sg5
I23
sa(dp839
g2
F0.00018906593322753906
sg3
I29
sg4
F1.2275390625
sg5
I23
sa(dp840
g2
F0.0001900196075439453
sg3
I30
sg4
F1.364192008972168
sg5
I23
sa(dp841
g2
F0.00017499923706054688
sg3
I31
sg4
F1.263070821762085
sg5
I23
sa(dp842
g2
F0.00020599365234375
sg3
I32
sg4
F1.483449935913086
sg5
I23
sa(dp843
g2
F0.0001780986785888672
sg3
I33
sg4
F1.9822320938110352
sg5
I23
sa(dp844
g2
F0.00018787384033203125
sg3
I34
sg4
F1.9566709995269775
sg5
I23
sa(dp845
g2
F0.00019311904907226562
sg3
I35
sg4
F2.06112003326416
sg5
I23
sa(dp846
g2
F0.0001900196075439453
sg3
I36
sg4
F2.474363088607788
sg5
I23
sa(dp847
g2
F0.00018286705017089844
sg3
I37
sg4
F2.2256572246551514
sg5
I23
sa(dp848
g2
F0.00019097328186035156
sg3
I38
sg4
F2.1955010890960693
sg5
I23
sa(dp849
g2
F0.00017380714416503906
sg3
I39
sg4
F2.822638988494873
sg5
I23
sa(dp850
g2
F0.00018906593322753906
sg3
I40
sg4
F2.2574379444122314
sg5
I23
sa(dp851
g2
F0.0002009868621826172
sg3
I41
sg4
F2.3500490188598633
sg5
I23
sa(dp852
g2
F0.0001761913299560547
sg3
I42
sg4
F3.21535587310791
sg5
I23
sa(dp853
g2
F0.00018310546875
sg3
I43
sg4
F2.794257879257202
sg5
I23
sa(dp854
g2
F0.0001800060272216797
sg3
I44
sg4
F2.8134570121765137
sg5
I23
sa(dp855
g2
F0.00023102760314941406
sg3
I45
sg4
F3.2724549770355225
sg5
I23
sa(dp856
g2
F0.00017404556274414062
sg3
I46
sg4
F5.009451866149902
sg5
I23
sa(dp857
g2
F0.0002090930938720703
sg3
I47
sg4
F3.4279160499572754
sg5
I23
sa(dp858
g2
F0.00020599365234375
sg3
I48
sg4
F4.03139591217041
sg5
I23
sa(dp859
g2
F0.00021910667419433594
sg3
I49
sg4
F3.764409065246582
sg5
I23
sa(dp860
g2
F0.00014090538024902344
sg3
I5
sg4
F0.09392309188842773
sg5
I24
sa(dp861
g2
F0.0001468658447265625
sg3
I6
sg4
F0.12688899040222168
sg5
I24
sa(dp862
g2
F0.00012087821960449219
sg3
I7
sg4
F0.11820316314697266
sg5
I24
sa(dp863
g2
F0.00017023086547851562
sg3
I8
sg4
F0.14693498611450195
sg5
I24
sa(dp864
g2
F0.00015783309936523438
sg3
I9
sg4
F0.3463890552520752
sg5
I24
sa(dp865
g2
F0.0001480579376220703
sg3
I10
sg4
F0.4122960567474365
sg5
I24
sa(dp866
g2
F0.00028395652770996094
sg3
I11
sg4
F0.21040701866149902
sg5
I24
sa(dp867
g2
F0.00014901161193847656
sg3
I12
sg4
F0.45136404037475586
sg5
I24
sa(dp868
g2
F0.00015306472778320312
sg3
I13
sg4
F0.7902431488037109
sg5
I24
sa(dp869
g2
F0.00021696090698242188
sg3
I14
sg4
F0.6571931838989258
sg5
I24
sa(dp870
g2
F0.00018310546875
sg3
I15
sg4
F0.5823218822479248
sg5
I24
sa(dp871
g2
F0.00017595291137695312
sg3
I16
sg4
F0.6408581733703613
sg5
I24
sa(dp872
g2
F0.00019693374633789062
sg3
I17
sg4
F0.7642221450805664
sg5
I24
sa(dp873
g2
F0.0001518726348876953
sg3
I18
sg4
F0.8454949855804443
sg5
I24
sa(dp874
g2
F0.00019097328186035156
sg3
I19
sg4
F0.967857837677002
sg5
I24
sa(dp875
g2
F0.0001971721649169922
sg3
I20
sg4
F0.9536669254302979
sg5
I24
sa(dp876
g2
F0.0001919269561767578
sg3
I21
sg4
F0.6186869144439697
sg5
I24
sa(dp877
g2
F0.00017499923706054688
sg3
I22
sg4
F0.9085540771484375
sg5
I24
sa(dp878
g2
F0.000186920166015625
sg3
I23
sg4
F0.964759111404419
sg5
I24
sa(dp879
g2
F0.00019788742065429688
sg3
I24
sg4
F1.0780339241027832
sg5
I24
sa(dp880
g2
F0.00019502639770507812
sg3
I25
sg4
F1.6125619411468506
sg5
I24
sa(dp881
g2
F0.0001728534698486328
sg3
I26
sg4
F1.225316047668457
sg5
I24
sa(dp882
g2
F0.00020003318786621094
sg3
I27
sg4
F1.620577096939087
sg5
I24
sa(dp883
g2
F0.0002930164337158203
sg3
I28
sg4
F1.3572728633880615
sg5
I24
sa(dp884
g2
F0.00018095970153808594
sg3
I29
sg4
F1.851017951965332
sg5
I24
sa(dp885
g2
F0.00016808509826660156
sg3
I30
sg4
F1.7529761791229248
sg5
I24
sa(dp886
g2
F0.000164031982421875
sg3
I31
sg4
F1.989203929901123
sg5
I24
sa(dp887
g2
F0.000164031982421875
sg3
I32
sg4
F1.4509260654449463
sg5
I24
sa(dp888
g2
F0.0001900196075439453
sg3
I33
sg4
F1.3059310913085938
sg5
I24
sa(dp889
g2
F0.00037097930908203125
sg3
I34
sg4
F1.833616018295288
sg5
I24
sa(dp890
g2
F0.00019598007202148438
sg3
I35
sg4
F2.4195520877838135
sg5
I24
sa(dp891
g2
F0.0001690387725830078
sg3
I36
sg4
F1.9284310340881348
sg5
I24
sa(dp892
g2
F0.0001819133758544922
sg3
I37
sg4
F2.696073055267334
sg5
I24
sa(dp893
g2
F0.00019097328186035156
sg3
I38
sg4
F3.45243501663208
sg5
I24
sa(dp894
g2
F0.0002231597900390625
sg3
I39
sg4
F3.6421620845794678
sg5
I24
sa(dp895
g2
F0.0002338886260986328
sg3
I40
sg4
F3.1962409019470215
sg5
I24
sa(dp896
g2
F0.00025391578674316406
sg3
I41
sg4
F3.231998920440674
sg5
I24
sa(dp897
g2
F0.0002620220184326172
sg3
I42
sg4
F3.8561718463897705
sg5
I24
sa(dp898
g2
F0.00021314620971679688
sg3
I43
sg4
F3.066038131713867
sg5
I24
sa(dp899
g2
F0.00021219253540039062
sg3
I44
sg4
F4.518462896347046
sg5
I24
sa(dp900
g2
F0.00020384788513183594
sg3
I45
sg4
F3.130202054977417
sg5
I24
sa(dp901
g2
F0.00024390220642089844
sg3
I46
sg4
F4.495768070220947
sg5
I24
sa(dp902
g2
F0.000244140625
sg3
I47
sg4
F4.214606046676636
sg5
I24
sa(dp903
g2
F0.0001938343048095703
sg3
I48
sg4
F4.000042915344238
sg5
I24
sa(dp904
g2
F0.0001838207244873047
sg3
I49
sg4
F3.0226049423217773
sg5
I24
sa(dp905
g2
F0.0001430511474609375
sg3
I5
sg4
F0.17494511604309082
sg5
I25
sa(dp906
g2
F0.00014710426330566406
sg3
I6
sg4
F0.20645999908447266
sg5
I25
sa(dp907
g2
F0.00017189979553222656
sg3
I7
sg4
F0.16744017601013184
sg5
I25
sa(dp908
g2
F0.00017595291137695312
sg3
I8
sg4
F0.25966501235961914
sg5
I25
sa(dp909
g2
F0.00014781951904296875
sg3
I9
sg4
F0.17482280731201172
sg5
I25
sa(dp910
g2
F0.0002460479736328125
sg3
I10
sg4
F0.4463639259338379
sg5
I25
sa(dp911
g2
F0.0001621246337890625
sg3
I11
sg4
F0.6072530746459961
sg5
I25
sa(dp912
g2
F0.00016498565673828125
sg3
I12
sg4
F0.4615199565887451
sg5
I25
sa(dp913
g2
F0.0002510547637939453
sg3
I13
sg4
F0.39835405349731445
sg5
I25
sa(dp914
g2
F0.00018596649169921875
sg3
I14
sg4
F0.7381389141082764
sg5
I25
sa(dp915
g2
F0.0002219676971435547
sg3
I15
sg4
F0.6845641136169434
sg5
I25
sa(dp916
g2
F0.0001850128173828125
sg3
I16
sg4
F0.5726950168609619
sg5
I25
sa(dp917
g2
F0.00015687942504882812
sg3
I17
sg4
F1.596020221710205
sg5
I25
sa(dp918
g2
F0.00016498565673828125
sg3
I18
sg4
F0.8962631225585938
sg5
I25
sa(dp919
g2
F0.0002079010009765625
sg3
I19
sg4
F0.7780580520629883
sg5
I25
sa(dp920
g2
F0.00014495849609375
sg3
I20
sg4
F0.9858691692352295
sg5
I25
sa(dp921
g2
F0.0001590251922607422
sg3
I21
sg4
F0.8952310085296631
sg5
I25
sa(dp922
g2
F0.0002079010009765625
sg3
I22
sg4
F2.0786080360412598
sg5
I25
sa(dp923
g2
F0.00017499923706054688
sg3
I23
sg4
F1.5429761409759521
sg5
I25
sa(dp924
g2
F0.00015401840209960938
sg3
I24
sg4
F1.5852570533752441
sg5
I25
sa(dp925
g2
F0.00016689300537109375
sg3
I25
sg4
F1.1619861125946045
sg5
I25
sa(dp926
g2
F0.00026607513427734375
sg3
I26
sg4
F1.1781680583953857
sg5
I25
sa(dp927
g2
F0.0002779960632324219
sg3
I27
sg4
F0.970574140548706
sg5
I25
sa(dp928
g2
F0.00019788742065429688
sg3
I28
sg4
F1.7570958137512207
sg5
I25
sa(dp929
g2
F0.00020599365234375
sg3
I29
sg4
F1.8940260410308838
sg5
I25
sa(dp930
g2
F0.0002849102020263672
sg3
I30
sg4
F2.2854599952697754
sg5
I25
sa(dp931
g2
F0.0001819133758544922
sg3
I31
sg4
F2.8888089656829834
sg5
I25
sa(dp932
g2
F0.00019216537475585938
sg3
I32
sg4
F1.8177390098571777
sg5
I25
sa(dp933
g2
F0.00017786026000976562
sg3
I33
sg4
F1.9118478298187256
sg5
I25
sa(dp934
g2
F0.00023412704467773438
sg3
I34
sg4
F3.2686760425567627
sg5
I25
sa(dp935
g2
F0.00021982192993164062
sg3
I35
sg4
F2.426692008972168
sg5
I25
sa(dp936
g2
F0.00022101402282714844
sg3
I36
sg4
F2.0905919075012207
sg5
I25
sa(dp937
g2
F0.000247955322265625
sg3
I37
sg4
F2.3967390060424805
sg5
I25
sa(dp938
g2
F0.00023603439331054688
sg3
I38
sg4
F3.6046841144561768
sg5
I25
sa(dp939
g2
F0.00019693374633789062
sg3
I39
sg4
F2.8150789737701416
sg5
I25
sa(dp940
g2
F0.00021386146545410156
sg3
I40
sg4
F2.997054100036621
sg5
I25
sa(dp941
g2
F0.00018906593322753906
sg3
I41
sg4
F2.2421510219573975
sg5
I25
sa(dp942
g2
F0.00019598007202148438
sg3
I42
sg4
F2.9933409690856934
sg5
I25
sa(dp943
g2
F0.0002319812774658203
sg3
I43
sg4
F5.3750598430633545
sg5
I25
sa(dp944
g2
F0.00020503997802734375
sg3
I44
sg4
F3.980712890625
sg5
I25
sa(dp945
g2
F0.0003249645233154297
sg3
I45
sg4
F4.364044904708862
sg5
I25
sa(dp946
g2
F0.00020599365234375
sg3
I46
sg4
F4.108856916427612
sg5
I25
sa(dp947
g2
F0.00025391578674316406
sg3
I47
sg4
F4.715543031692505
sg5
I25
sa(dp948
g2
F0.00019502639770507812
sg3
I48
sg4
F4.141678810119629
sg5
I25
sa(dp949
g2
F0.00021600723266601562
sg3
I49
sg4
F5.235966920852661
sg5
I25
sa(dp950
g2
F0.00013899803161621094
sg3
I5
sg4
F0.11156797409057617
sg5
I26
sa(dp951
g2
F0.0001430511474609375
sg3
I6
sg4
F0.1612989902496338
sg5
I26
sa(dp952
g2
F0.0001480579376220703
sg3
I7
sg4
F0.1380469799041748
sg5
I26
sa(dp953
g2
F0.000141143798828125
sg3
I8
sg4
F0.1325969696044922
sg5
I26
sa(dp954
g2
F0.00034499168395996094
sg3
I9
sg4
F0.2130281925201416
sg5
I26
sa(dp955
g2
F0.00015687942504882812
sg3
I10
sg4
F0.37067103385925293
sg5
I26
sa(dp956
g2
F0.00017380714416503906
sg3
I11
sg4
F0.3880348205566406
sg5
I26
sa(dp957
g2
F0.00016999244689941406
sg3
I12
sg4
F0.738645076751709
sg5
I26
sa(dp958
g2
F0.00018477439880371094
sg3
I13
sg4
F0.6028568744659424
sg5
I26
sa(dp959
g2
F0.00014400482177734375
sg3
I14
sg4
F0.7162442207336426
sg5
I26
sa(dp960
g2
F0.0002300739288330078
sg3
I15
sg4
F0.5092439651489258
sg5
I26
sa(dp961
g2
F0.00015282630920410156
sg3
I16
sg4
F1.247972011566162
sg5
I26
sa(dp962
g2
F0.00021195411682128906
sg3
I17
sg4
F0.6818439960479736
sg5
I26
sa(dp963
g2
F0.00019502639770507812
sg3
I18
sg4
F1.110703945159912
sg5
I26
sa(dp964
g2
F0.00016999244689941406
sg3
I19
sg4
F0.9843130111694336
sg5
I26
sa(dp965
g2
F0.00022792816162109375
sg3
I20
sg4
F1.2597317695617676
sg5
I26
sa(dp966
g2
F0.00019788742065429688
sg3
I21
sg4
F1.8940799236297607
sg5
I26
sa(dp967
g2
F0.00019598007202148438
sg3
I22
sg4
F0.8668301105499268
sg5
I26
sa(dp968
g2
F0.00021004676818847656
sg3
I23
sg4
F1.5027410984039307
sg5
I26
sa(dp969
g2
F0.00019788742065429688
sg3
I24
sg4
F1.31036376953125
sg5
I26
sa(dp970
g2
F0.0002560615539550781
sg3
I25
sg4
F1.3688838481903076
sg5
I26
sa(dp971
g2
F0.00024199485778808594
sg3
I26
sg4
F1.612004041671753
sg5
I26
sa(dp972
g2
F0.0001800060272216797
sg3
I27
sg4
F1.7112019062042236
sg5
I26
sa(dp973
g2
F0.0002219676971435547
sg3
I28
sg4
F1.7118010520935059
sg5
I26
sa(dp974
g2
F0.0001938343048095703
sg3
I29
sg4
F1.636469841003418
sg5
I26
sa(dp975
g2
F0.0001990795135498047
sg3
I30
sg4
F2.0182089805603027
sg5
I26
sa(dp976
g2
F0.0001690387725830078
sg3
I31
sg4
F2.1656200885772705
sg5
I26
sa(dp977
g2
F0.00018596649169921875
sg3
I32
sg4
F2.232809066772461
sg5
I26
sa(dp978
g2
F0.0002079010009765625
sg3
I33
sg4
F2.2925961017608643
sg5
I26
sa(dp979
g2
F0.0002028942108154297
sg3
I34
sg4
F3.499863862991333
sg5
I26
sa(dp980
g2
F0.00020503997802734375
sg3
I35
sg4
F2.466470956802368
sg5
I26
sa(dp981
g2
F0.0002110004425048828
sg3
I36
sg4
F2.6441891193389893
sg5
I26
sa(dp982
g2
F0.0001709461212158203
sg3
I37
sg4
F3.1073458194732666
sg5
I26
sa(dp983
g2
F0.0002357959747314453
sg3
I38
sg4
F2.688277006149292
sg5
I26
sa(dp984
g2
F0.0002009868621826172
sg3
I39
sg4
F2.7279348373413086
sg5
I26
sa(dp985
g2
F0.00020599365234375
sg3
I40
sg4
F2.6693320274353027
sg5
I26
sa(dp986
g2
F0.0002410411834716797
sg3
I41
sg4
F2.995074987411499
sg5
I26
sa(dp987
g2
F0.00018596649169921875
sg3
I42
sg4
F3.394503116607666
sg5
I26
sa(dp988
g2
F0.00023889541625976562
sg3
I43
sg4
F3.4999678134918213
sg5
I26
sa(dp989
g2
F0.0001838207244873047
sg3
I44
sg4
F3.2090249061584473
sg5
I26
sa(dp990
g2
F0.00020194053649902344
sg3
I45
sg4
F5.042245149612427
sg5
I26
sa(dp991
g2
F0.00019097328186035156
sg3
I46
sg4
F4.269815921783447
sg5
I26
sa(dp992
g2
F0.0002288818359375
sg3
I47
sg4
F4.144546985626221
sg5
I26
sa(dp993
g2
F0.000225067138671875
sg3
I48
sg4
F3.886826992034912
sg5
I26
sa(dp994
g2
F0.00024318695068359375
sg3
I49
sg4
F5.30443000793457
sg5
I26
sa(dp995
g2
F0.0001327991485595703
sg3
I5
sg4
F0.15140485763549805
sg5
I27
sa(dp996
g2
F0.00016117095947265625
sg3
I6
sg4
F0.09418296813964844
sg5
I27
sa(dp997
g2
F0.0001690387725830078
sg3
I7
sg4
F0.2458820343017578
sg5
I27
sa(dp998
g2
F0.00014901161193847656
sg3
I8
sg4
F0.28359198570251465
sg5
I27
sa(dp999
g2
F0.00015592575073242188
sg3
I9
sg4
F0.31055498123168945
sg5
I27
sa(dp1000
g2
F0.00014591217041015625
sg3
I10
sg4
F0.34897303581237793
sg5
I27
sa(dp1001
g2
F0.00015091896057128906
sg3
I11
sg4
F0.48893189430236816
sg5
I27
sa(dp1002
g2
F0.00016021728515625
sg3
I12
sg4
F0.6068568229675293
sg5
I27
sa(dp1003
g2
F0.0001678466796875
sg3
I13
sg4
F0.39966607093811035
sg5
I27
sa(dp1004
g2
F0.00023889541625976562
sg3
I14
sg4
F0.871863842010498
sg5
I27
sa(dp1005
g2
F0.00020194053649902344
sg3
I15
sg4
F0.7425899505615234
sg5
I27
sa(dp1006
g2
F0.00020599365234375
sg3
I16
sg4
F0.7369511127471924
sg5
I27
sa(dp1007
g2
F0.00015306472778320312
sg3
I17
sg4
F0.54758620262146
sg5
I27
sa(dp1008
g2
F0.00016999244689941406
sg3
I18
sg4
F0.7567081451416016
sg5
I27
sa(dp1009
g2
F0.00020813941955566406
sg3
I19
sg4
F0.9753589630126953
sg5
I27
sa(dp1010
g2
F0.00017714500427246094
sg3
I20
sg4
F1.26295804977417
sg5
I27
sa(dp1011
g2
F0.00015592575073242188
sg3
I21
sg4
F1.0431840419769287
sg5
I27
sa(dp1012
g2
F0.00016999244689941406
sg3
I22
sg4
F1.0348410606384277
sg5
I27
sa(dp1013
g2
F0.00018596649169921875
sg3
I23
sg4
F1.2367141246795654
sg5
I27
sa(dp1014
g2
F0.0001590251922607422
sg3
I24
sg4
F1.4614288806915283
sg5
I27
sa(dp1015
g2
F0.0001881122589111328
sg3
I25
sg4
F1.6013100147247314
sg5
I27
sa(dp1016
g2
F0.00017595291137695312
sg3
I26
sg4
F1.645895004272461
sg5
I27
sa(dp1017
g2
F0.00016689300537109375
sg3
I27
sg4
F1.6798081398010254
sg5
I27
sa(dp1018
g2
F0.0001728534698486328
sg3
I28
sg4
F2.2492141723632812
sg5
I27
sa(dp1019
g2
F0.00021314620971679688
sg3
I29
sg4
F1.7840609550476074
sg5
I27
sa(dp1020
g2
F0.00023984909057617188
sg3
I30
sg4
F2.0913197994232178
sg5
I27
sa(dp1021
g2
F0.00017905235290527344
sg3
I31
sg4
F2.1093921661376953
sg5
I27
sa(dp1022
g2
F0.00021910667419433594
sg3
I32
sg4
F2.809973955154419
sg5
I27
sa(dp1023
g2
F0.0001990795135498047
sg3
I33
sg4
F2.2324979305267334
sg5
I27
sa(dp1024
g2
F0.00018787384033203125
sg3
I34
sg4
F4.227312803268433
sg5
I27
sa(dp1025
g2
F0.0001850128173828125
sg3
I35
sg4
F2.3394758701324463
sg5
I27
sa(dp1026
g2
F0.00018095970153808594
sg3
I36
sg4
F3.0348281860351562
sg5
I27
sa(dp1027
g2
F0.00020194053649902344
sg3
I37
sg4
F2.9975171089172363
sg5
I27
sa(dp1028
g2
F0.00021505355834960938
sg3
I38
sg4
F4.063314199447632
sg5
I27
sa(dp1029
g2
F0.0002751350402832031
sg3
I39
sg4
F3.159641981124878
sg5
I27
sa(dp1030
g2
F0.00019693374633789062
sg3
I40
sg4
F3.019990921020508
sg5
I27
sa(dp1031
g2
F0.0002789497375488281
sg3
I41
sg4
F2.4269537925720215
sg5
I27
sa(dp1032
g2
F0.00017690658569335938
sg3
I42
sg4
F3.516566038131714
sg5
I27
sa(dp1033
g2
F0.0002598762512207031
sg3
I43
sg4
F6.177322864532471
sg5
I27
sa(dp1034
g2
F0.0002009868621826172
sg3
I44
sg4
F4.2362260818481445
sg5
I27
sa(dp1035
g2
F0.00020694732666015625
sg3
I45
sg4
F4.020550966262817
sg5
I27
sa(dp1036
g2
F0.000209808349609375
sg3
I46
sg4
F3.6374289989471436
sg5
I27
sa(dp1037
g2
F0.00023603439331054688
sg3
I47
sg4
F5.247779130935669
sg5
I27
sa(dp1038
g2
F0.00021910667419433594
sg3
I48
sg4
F3.449563980102539
sg5
I27
sa(dp1039
g2
F0.00023794174194335938
sg3
I49
sg4
F5.624063968658447
sg5
I27
sa(dp1040
g2
F0.00018906593322753906
sg3
I5
sg4
F0.10035896301269531
sg5
I28
sa(dp1041
g2
F0.00014400482177734375
sg3
I6
sg4
F0.17762303352355957
sg5
I28
sa(dp1042
g2
F0.00016379356384277344
sg3
I7
sg4
F0.19906997680664062
sg5
I28
sa(dp1043
g2
F0.00013113021850585938
sg3
I8
sg4
F0.2801167964935303
sg5
I28
sa(dp1044
g2
F0.0001571178436279297
sg3
I9
sg4
F0.3703329563140869
sg5
I28
sa(dp1045
g2
F0.00019788742065429688
sg3
I10
sg4
F0.3438601493835449
sg5
I28
sa(dp1046
g2
F0.00019812583923339844
sg3
I11
sg4
F0.31816816329956055
sg5
I28
sa(dp1047
g2
F0.00014591217041015625
sg3
I12
sg4
F0.7027790546417236
sg5
I28
sa(dp1048
g2
F0.0001971721649169922
sg3
I13
sg4
F0.7168788909912109
sg5
I28
sa(dp1049
g2
F0.00019598007202148438
sg3
I14
sg4
F1.0929999351501465
sg5
I28
sa(dp1050
g2
F0.0001862049102783203
sg3
I15
sg4
F1.1711719036102295
sg5
I28
sa(dp1051
g2
F0.00015592575073242188
sg3
I16
sg4
F0.6484169960021973
sg5
I28
sa(dp1052
g2
F0.00020384788513183594
sg3
I17
sg4
F0.9259300231933594
sg5
I28
sa(dp1053
g2
F0.00020599365234375
sg3
I18
sg4
F0.9010519981384277
sg5
I28
sa(dp1054
g2
F0.0001819133758544922
sg3
I19
sg4
F1.1989591121673584
sg5
I28
sa(dp1055
g2
F0.00019812583923339844
sg3
I20
sg4
F1.36061692237854
sg5
I28
sa(dp1056
g2
F0.0001938343048095703
sg3
I21
sg4
F1.1400198936462402
sg5
I28
sa(dp1057
g2
F0.00024700164794921875
sg3
I22
sg4
F1.481308937072754
sg5
I28
sa(dp1058
g2
F0.00018095970153808594
sg3
I23
sg4
F1.7391281127929688
sg5
I28
sa(dp1059
g2
F0.0001938343048095703
sg3
I24
sg4
F1.63425612449646
sg5
I28
sa(dp1060
g2
F0.0002181529998779297
sg3
I25
sg4
F1.5683550834655762
sg5
I28
sa(dp1061
g2
F0.00020313262939453125
sg3
I26
sg4
F1.816884994506836
sg5
I28
sa(dp1062
g2
F0.00019097328186035156
sg3
I27
sg4
F2.769237995147705
sg5
I28
sa(dp1063
g2
F0.00022602081298828125
sg3
I28
sg4
F2.121248960494995
sg5
I28
sa(dp1064
g2
F0.00019598007202148438
sg3
I29
sg4
F2.442350149154663
sg5
I28
sa(dp1065
g2
F0.0002269744873046875
sg3
I30
sg4
F2.238408088684082
sg5
I28
sa(dp1066
g2
F0.00021314620971679688
sg3
I31
sg4
F2.6392600536346436
sg5
I28
sa(dp1067
g2
F0.0002090930938720703
sg3
I32
sg4
F2.080070972442627
sg5
I28
sa(dp1068
g2
F0.00019311904907226562
sg3
I33
sg4
F3.521630048751831
sg5
I28
sa(dp1069
g2
F0.0002048015594482422
sg3
I34
sg4
F2.1558640003204346
sg5
I28
sa(dp1070
g2
F0.00022912025451660156
sg3
I35
sg4
F2.7360270023345947
sg5
I28
sa(dp1071
g2
F0.00024509429931640625
sg3
I36
sg4
F2.99013614654541
sg5
I28
sa(dp1072
g2
F0.00021886825561523438
sg3
I37
sg4
F2.529581069946289
sg5
I28
sa(dp1073
g2
F0.00020599365234375
sg3
I38
sg4
F3.5002548694610596
sg5
I28
sa(dp1074
g2
F0.0002338886260986328
sg3
I39
sg4
F4.047634124755859
sg5
I28
sa(dp1075
g2
F0.00019812583923339844
sg3
I40
sg4
F4.044909954071045
sg5
I28
sa(dp1076
g2
F0.00023794174194335938
sg3
I41
sg4
F3.665170907974243
sg5
I28
sa(dp1077
g2
F0.0002570152282714844
sg3
I42
sg4
F4.734869003295898
sg5
I28
sa(dp1078
g2
F0.00028896331787109375
sg3
I43
sg4
F3.843930959701538
sg5
I28
sa(dp1079
g2
F0.0002200603485107422
sg3
I44
sg4
F4.716689825057983
sg5
I28
sa(dp1080
g2
F0.000225067138671875
sg3
I45
sg4
F4.842512130737305
sg5
I28
sa(dp1081
g2
F0.00021386146545410156
sg3
I46
sg4
F5.237775087356567
sg5
I28
sa(dp1082
g2
F0.0002238750457763672
sg3
I47
sg4
F4.01741886138916
sg5
I28
sa(dp1083
g2
F0.0002200603485107422
sg3
I48
sg4
F5.555339097976685
sg5
I28
sa(dp1084
g2
F0.00022411346435546875
sg3
I49
sg4
F5.332629919052124
sg5
I28
sa(dp1085
g2
F0.0001430511474609375
sg3
I5
sg4
F0.08698606491088867
sg5
I29
sa(dp1086
g2
F0.00015687942504882812
sg3
I6
sg4
F0.31525111198425293
sg5
I29
sa(dp1087
g2
F0.00016188621520996094
sg3
I7
sg4
F0.29087114334106445
sg5
I29
sa(dp1088
g2
F0.00017213821411132812
sg3
I8
sg4
F0.22106099128723145
sg5
I29
sa(dp1089
g2
F0.00020003318786621094
sg3
I9
sg4
F0.28768110275268555
sg5
I29
sa(dp1090
g2
F0.00015997886657714844
sg3
I10
sg4
F0.34497594833374023
sg5
I29
sa(dp1091
g2
F0.00019979476928710938
sg3
I11
sg4
F0.39940905570983887
sg5
I29
sa(dp1092
g2
F0.00020313262939453125
sg3
I12
sg4
F0.6682620048522949
sg5
I29
sa(dp1093
g2
F0.00015783309936523438
sg3
I13
sg4
F0.6795041561126709
sg5
I29
sa(dp1094
g2
F0.00016999244689941406
sg3
I14
sg4
F0.38997793197631836
sg5
I29
sa(dp1095
g2
F0.00017595291137695312
sg3
I15
sg4
F0.6466169357299805
sg5
I29
sa(dp1096
g2
F0.0001518726348876953
sg3
I16
sg4
F1.1301641464233398
sg5
I29
sa(dp1097
g2
F0.00020313262939453125
sg3
I17
sg4
F1.0359981060028076
sg5
I29
sa(dp1098
g2
F0.00016999244689941406
sg3
I18
sg4
F0.7759189605712891
sg5
I29
sa(dp1099
g2
F0.00017905235290527344
sg3
I19
sg4
F1.366926908493042
sg5
I29
sa(dp1100
g2
F0.00020194053649902344
sg3
I20
sg4
F1.5207560062408447
sg5
I29
sa(dp1101
g2
F0.00016307830810546875
sg3
I21
sg4
F1.4897940158843994
sg5
I29
sa(dp1102
g2
F0.00021004676818847656
sg3
I22
sg4
F1.1904089450836182
sg5
I29
sa(dp1103
g2
F0.00018405914306640625
sg3
I23
sg4
F1.6141159534454346
sg5
I29
sa(dp1104
g2
F0.00019502639770507812
sg3
I24
sg4
F2.239525079727173
sg5
I29
sa(dp1105
g2
F0.00021004676818847656
sg3
I25
sg4
F2.030961036682129
sg5
I29
sa(dp1106
g2
F0.0002110004425048828
sg3
I26
sg4
F1.8427820205688477
sg5
I29
sa(dp1107
g2
F0.0001621246337890625
sg3
I27
sg4
F1.8012290000915527
sg5
I29
sa(dp1108
g2
F0.0002238750457763672
sg3
I28
sg4
F2.3183140754699707
sg5
I29
sa(dp1109
g2
F0.00035309791564941406
sg3
I29
sg4
F3.0829241275787354
sg5
I29
sa(dp1110
g2
F0.0001819133758544922
sg3
I30
sg4
F2.9498801231384277
sg5
I29
sa(dp1111
g2
F0.0002601146697998047
sg3
I31
sg4
F3.562087059020996
sg5
I29
sa(dp1112
g2
F0.0002219676971435547
sg3
I32
sg4
F2.356917142868042
sg5
I29
sa(dp1113
g2
F0.00021886825561523438
sg3
I33
sg4
F2.8546078205108643
sg5
I29
sa(dp1114
g2
F0.0001800060272216797
sg3
I34
sg4
F1.8537969589233398
sg5
I29
sa(dp1115
g2
F0.00018286705017089844
sg3
I35
sg4
F2.996273994445801
sg5
I29
sa(dp1116
g2
F0.0002009868621826172
sg3
I36
sg4
F3.744277000427246
sg5
I29
sa(dp1117
g2
F0.00025010108947753906
sg3
I37
sg4
F3.1986911296844482
sg5
I29
sa(dp1118
g2
F0.0002129077911376953
sg3
I38
sg4
F3.8087069988250732
sg5
I29
sa(dp1119
g2
F0.0002570152282714844
sg3
I39
sg4
F2.373276948928833
sg5
I29
sa(dp1120
g2
F0.00024080276489257812
sg3
I40
sg4
F3.763962984085083
sg5
I29
sa(dp1121
g2
F0.00021982192993164062
sg3
I41
sg4
F4.5553741455078125
sg5
I29
sa(dp1122
g2
F0.0002849102020263672
sg3
I42
sg4
F3.742176055908203
sg5
I29
sa(dp1123
g2
F0.00020599365234375
sg3
I43
sg4
F5.07908296585083
sg5
I29
sa(dp1124
g2
F0.0001919269561767578
sg3
I44
sg4
F5.540493011474609
sg5
I29
sa(dp1125
g2
F0.0002608299255371094
sg3
I45
sg4
F3.246738910675049
sg5
I29
sa(dp1126
g2
F0.00023698806762695312
sg3
I46
sg4
F4.26075291633606
sg5
I29
sa(dp1127
g2
F0.00023889541625976562
sg3
I47
sg4
F5.148806095123291
sg5
I29
sa(dp1128
g2
F0.0002639293670654297
sg3
I48
sg4
F5.246402978897095
sg5
I29
sa(dp1129
g2
F0.0002989768981933594
sg3
I49
sg4
F6.070240020751953
sg5
I29
sa(dp1130
g2
F0.0001480579376220703
sg3
I5
sg4
F0.11815810203552246
sg5
I30
sa(dp1131
g2
F0.00020003318786621094
sg3
I6
sg4
F0.11982512474060059
sg5
I30
sa(dp1132
g2
F0.0001590251922607422
sg3
I7
sg4
F0.2960531711578369
sg5
I30
sa(dp1133
g2
F0.00015497207641601562
sg3
I8
sg4
F0.2751638889312744
sg5
I30
sa(dp1134
g2
F0.0001499652862548828
sg3
I9
sg4
F0.3793141841888428
sg5
I30
sa(dp1135
g2
F0.0001659393310546875
sg3
I10
sg4
F0.5014138221740723
sg5
I30
sa(dp1136
g2
F0.00015783309936523438
sg3
I11
sg4
F0.5694210529327393
sg5
I30
sa(dp1137
g2
F0.00016498565673828125
sg3
I12
sg4
F0.638671875
sg5
I30
sa(dp1138
g2
F0.00016307830810546875
sg3
I13
sg4
F0.5840549468994141
sg5
I30
sa(dp1139
g2
F0.00014901161193847656
sg3
I14
sg4
F0.7845990657806396
sg5
I30
sa(dp1140
g2
F0.0003190040588378906
sg3
I15
sg4
F0.49719905853271484
sg5
I30
sa(dp1141
g2
F0.00017499923706054688
sg3
I16
sg4
F1.309683084487915
sg5
I30
sa(dp1142
g2
F0.00019288063049316406
sg3
I17
sg4
F1.3271069526672363
sg5
I30
sa(dp1143
g2
F0.00020503997802734375
sg3
I18
sg4
F1.210603952407837
sg5
I30
sa(dp1144
g2
F0.00018596649169921875
sg3
I19
sg4
F1.4182100296020508
sg5
I30
sa(dp1145
g2
F0.00017380714416503906
sg3
I20
sg4
F1.2205839157104492
sg5
I30
sa(dp1146
g2
F0.00019407272338867188
sg3
I21
sg4
F1.5949070453643799
sg5
I30
sa(dp1147
g2
F0.00016689300537109375
sg3
I22
sg4
F1.2294161319732666
sg5
I30
sa(dp1148
g2
F0.00015616416931152344
sg3
I23
sg4
F1.1176719665527344
sg5
I30
sa(dp1149
g2
F0.0001938343048095703
sg3
I24
sg4
F1.4687278270721436
sg5
I30
sa(dp1150
g2
F0.0001850128173828125
sg3
I25
sg4
F1.3993849754333496
sg5
I30
sa(dp1151
g2
F0.0001819133758544922
sg3
I26
sg4
F1.6474568843841553
sg5
I30
sa(dp1152
g2
F0.0002589225769042969
sg3
I27
sg4
F2.47091007232666
sg5
I30
sa(dp1153
g2
F0.0002028942108154297
sg3
I28
sg4
F3.091174840927124
sg5
I30
sa(dp1154
g2
F0.00017404556274414062
sg3
I29
sg4
F2.0724968910217285
sg5
I30
sa(dp1155
g2
F0.00018215179443359375
sg3
I30
sg4
F2.455562114715576
sg5
I30
sa(dp1156
g2
F0.00021910667419433594
sg3
I31
sg4
F1.6753461360931396
sg5
I30
sa(dp1157
g2
F0.0002300739288330078
sg3
I32
sg4
F3.9119629859924316
sg5
I30
sa(dp1158
g2
F0.0002219676971435547
sg3
I33
sg4
F2.7062811851501465
sg5
I30
sa(dp1159
g2
F0.00020313262939453125
sg3
I34
sg4
F2.419387102127075
sg5
I30
sa(dp1160
g2
F0.00019502639770507812
sg3
I35
sg4
F2.7050459384918213
sg5
I30
sa(dp1161
g2
F0.0002231597900390625
sg3
I36
sg4
F2.976551055908203
sg5
I30
sa(dp1162
g2
F0.0002689361572265625
sg3
I37
sg4
F3.8487939834594727
sg5
I30
sa(dp1163
g2
F0.00025391578674316406
sg3
I38
sg4
F2.922091007232666
sg5
I30
sa(dp1164
g2
F0.0002319812774658203
sg3
I39
sg4
F2.731983184814453
sg5
I30
sa(dp1165
g2
F0.00023317337036132812
sg3
I40
sg4
F2.7492780685424805
sg5
I30
sa(dp1166
g2
F0.00018596649169921875
sg3
I41
sg4
F3.2532899379730225
sg5
I30
sa(dp1167
g2
F0.0002090930938720703
sg3
I42
sg4
F3.919555902481079
sg5
I30
sa(dp1168
g2
F0.0002219676971435547
sg3
I43
sg4
F3.5509889125823975
sg5
I30
sa(dp1169
g2
F0.0002028942108154297
sg3
I44
sg4
F4.0110321044921875
sg5
I30
sa(dp1170
g2
F0.00033211708068847656
sg3
I45
sg4
F3.349946975708008
sg5
I30
sa(dp1171
g2
F0.0002269744873046875
sg3
I46
sg4
F4.141571044921875
sg5
I30
sa(dp1172
g2
F0.00019407272338867188
sg3
I47
sg4
F4.0876758098602295
sg5
I30
sa(dp1173
g2
F0.00029397010803222656
sg3
I48
sg4
F4.311337947845459
sg5
I30
sa(dp1174
g2
F0.00031685829162597656
sg3
I49
sg4
F6.188309907913208
sg5
I30
sa(dp1175
g2
F0.00015306472778320312
sg3
I5
sg4
F0.07732987403869629
sg5
I31
sa(dp1176
g2
F0.00014495849609375
sg3
I6
sg4
F0.19121193885803223
sg5
I31
sa(dp1177
g2
F0.00018596649169921875
sg3
I7
sg4
F0.22823405265808105
sg5
I31
sa(dp1178
g2
F0.00019097328186035156
sg3
I8
sg4
F0.3011600971221924
sg5
I31
sa(dp1179
g2
F0.0001671314239501953
sg3
I9
sg4
F0.2868311405181885
sg5
I31
sa(dp1180
g2
F0.00016808509826660156
sg3
I10
sg4
F0.42594099044799805
sg5
I31
sa(dp1181
g2
F0.00021910667419433594
sg3
I11
sg4
F0.6702508926391602
sg5
I31
sa(dp1182
g2
F0.0001690387725830078
sg3
I12
sg4
F0.5360331535339355
sg5
I31
sa(dp1183
g2
F0.00018715858459472656
sg3
I13
sg4
F0.5965290069580078
sg5
I31
sa(dp1184
g2
F0.0001468658447265625
sg3
I14
sg4
F0.5219759941101074
sg5
I31
sa(dp1185
g2
F0.00015592575073242188
sg3
I15
sg4
F0.6296889781951904
sg5
I31
sa(dp1186
g2
F0.00017595291137695312
sg3
I16
sg4
F0.6789178848266602
sg5
I31
sa(dp1187
g2
F0.00021696090698242188
sg3
I17
sg4
F1.6400318145751953
sg5
I31
sa(dp1188
g2
F0.0001850128173828125
sg3
I18
sg4
F1.1577320098876953
sg5
I31
sa(dp1189
g2
F0.0002090930938720703
sg3
I19
sg4
F0.8527438640594482
sg5
I31
sa(dp1190
g2
F0.0002110004425048828
sg3
I20
sg4
F1.0825190544128418
sg5
I31
sa(dp1191
g2
F0.00020384788513183594
sg3
I21
sg4
F1.150198221206665
sg5
I31
sa(dp1192
g2
F0.00022101402282714844
sg3
I22
sg4
F1.107184886932373
sg5
I31
sa(dp1193
g2
F0.00019407272338867188
sg3
I23
sg4
F1.6629281044006348
sg5
I31
sa(dp1194
g2
F0.0002009868621826172
sg3
I24
sg4
F2.026893138885498
sg5
I31
sa(dp1195
g2
F0.00019884109497070312
sg3
I25
sg4
F2.043102979660034
sg5
I31
sa(dp1196
g2
F0.00023603439331054688
sg3
I26
sg4
F2.2077009677886963
sg5
I31
sa(dp1197
g2
F0.00019693374633789062
sg3
I27
sg4
F2.5455000400543213
sg5
I31
sa(dp1198
g2
F0.00017404556274414062
sg3
I28
sg4
F1.359194040298462
sg5
I31
sa(dp1199
g2
F0.00020003318786621094
sg3
I29
sg4
F2.634787082672119
sg5
I31
sa(dp1200
g2
F0.0003669261932373047
sg3
I30
sg4
F3.005558967590332
sg5
I31
sa(dp1201
g2
F0.0002739429473876953
sg3
I31
sg4
F2.31046199798584
sg5
I31
sa(dp1202
g2
F0.00026798248291015625
sg3
I32
sg4
F2.489396095275879
sg5
I31
sa(dp1203
g2
F0.00024199485778808594
sg3
I33
sg4
F2.469045877456665
sg5
I31
sa(dp1204
g2
F0.00021791458129882812
sg3
I34
sg4
F2.674226999282837
sg5
I31
sa(dp1205
g2
F0.0002129077911376953
sg3
I35
sg4
F3.0991761684417725
sg5
I31
sa(dp1206
g2
F0.0002319812774658203
sg3
I36
sg4
F4.342708110809326
sg5
I31
sa(dp1207
g2
F0.00025200843811035156
sg3
I37
sg4
F4.125371932983398
sg5
I31
sa(dp1208
g2
F0.000209808349609375
sg3
I38
sg4
F3.3868539333343506
sg5
I31
sa(dp1209
g2
F0.0002219676971435547
sg3
I39
sg4
F3.0643391609191895
sg5
I31
sa(dp1210
g2
F0.000186920166015625
sg3
I40
sg4
F3.3498480319976807
sg5
I31
sa(dp1211
g2
F0.00021195411682128906
sg3
I41
sg4
F4.0687360763549805
sg5
I31
sa(dp1212
g2
F0.00022792816162109375
sg3
I42
sg4
F4.324665069580078
sg5
I31
sa(dp1213
g2
F0.0002110004425048828
sg3
I43
sg4
F3.3068130016326904
sg5
I31
sa(dp1214
g2
F0.0002868175506591797
sg3
I44
sg4
F5.536206007003784
sg5
I31
sa(dp1215
g2
F0.0002200603485107422
sg3
I45
sg4
F3.862243890762329
sg5
I31
sa(dp1216
g2
F0.00019979476928710938
sg3
I46
sg4
F6.584651947021484
sg5
I31
sa(dp1217
g2
F0.0002460479736328125
sg3
I47
sg4
F5.001672029495239
sg5
I31
sa(dp1218
g2
F0.00023412704467773438
sg3
I48
sg4
F5.831156969070435
sg5
I31
sa(dp1219
g2
F0.0002009868621826172
sg3
I49
sg4
F5.555419921875
sg5
I31
sa(dp1220
g2
F0.00015687942504882812
sg3
I5
sg4
F0.10392498970031738
sg5
I32
sa(dp1221
g2
F0.00014901161193847656
sg3
I6
sg4
F0.22674012184143066
sg5
I32
sa(dp1222
g2
F0.0002200603485107422
sg3
I7
sg4
F0.25168490409851074
sg5
I32
sa(dp1223
g2
F0.00015306472778320312
sg3
I8
sg4
F0.24892497062683105
sg5
I32
sa(dp1224
g2
F0.0002300739288330078
sg3
I9
sg4
F0.4308960437774658
sg5
I32
sa(dp1225
g2
F0.00016498565673828125
sg3
I10
sg4
F0.5176258087158203
sg5
I32
sa(dp1226
g2
F0.00014781951904296875
sg3
I11
sg4
F0.5822758674621582
sg5
I32
sa(dp1227
g2
F0.00015997886657714844
sg3
I12
sg4
F0.6352219581604004
sg5
I32
sa(dp1228
g2
F0.0001499652862548828
sg3
I13
sg4
F0.9086728096008301
sg5
I32
sa(dp1229
g2
F0.00014400482177734375
sg3
I14
sg4
F0.828294038772583
sg5
I32
sa(dp1230
g2
F0.0002040863037109375
sg3
I15
sg4
F1.0246589183807373
sg5
I32
sa(dp1231
g2
F0.0002579689025878906
sg3
I16
sg4
F1.6782948970794678
sg5
I32
sa(dp1232
g2
F0.00015211105346679688
sg3
I17
sg4
F1.5666749477386475
sg5
I32
sa(dp1233
g2
F0.00024080276489257812
sg3
I18
sg4
F1.1933708190917969
sg5
I32
sa(dp1234
g2
F0.0002391338348388672
sg3
I19
sg4
F1.0864970684051514
sg5
I32
sa(dp1235
g2
F0.00021600723266601562
sg3
I20
sg4
F1.3522398471832275
sg5
I32
sa(dp1236
g2
F0.00017213821411132812
sg3
I21
sg4
F1.0923669338226318
sg5
I32
sa(dp1237
g2
F0.00023412704467773438
sg3
I22
sg4
F1.769960880279541
sg5
I32
sa(dp1238
g2
F0.0001811981201171875
sg3
I23
sg4
F1.4900388717651367
sg5
I32
sa(dp1239
g2
F0.00021314620971679688
sg3
I24
sg4
F1.398698091506958
sg5
I32
sa(dp1240
g2
F0.00017499923706054688
sg3
I25
sg4
F1.2755777835845947
sg5
I32
sa(dp1241
g2
F0.00018405914306640625
sg3
I26
sg4
F1.807647943496704
sg5
I32
sa(dp1242
g2
F0.0001690387725830078
sg3
I27
sg4
F2.2608962059020996
sg5
I32
sa(dp1243
g2
F0.00021696090698242188
sg3
I28
sg4
F2.0638859272003174
sg5
I32
sa(dp1244
g2
F0.00023508071899414062
sg3
I29
sg4
F2.0358219146728516
sg5
I32
sa(dp1245
g2
F0.00020885467529296875
sg3
I30
sg4
F3.0982420444488525
sg5
I32
sa(dp1246
g2
F0.00020599365234375
sg3
I31
sg4
F2.0950260162353516
sg5
I32
sa(dp1247
g2
F0.00023102760314941406
sg3
I32
sg4
F3.640878200531006
sg5
I32
sa(dp1248
g2
F0.00020694732666015625
sg3
I33
sg4
F2.3113181591033936
sg5
I32
sa(dp1249
g2
F0.0003180503845214844
sg3
I34
sg4
F4.1335530281066895
sg5
I32
sa(dp1250
g2
F0.00023293495178222656
sg3
I35
sg4
F2.8225691318511963
sg5
I32
sa(dp1251
g2
F0.0001990795135498047
sg3
I36
sg4
F3.1798980236053467
sg5
I32
sa(dp1252
g2
F0.00023698806762695312
sg3
I37
sg4
F3.145087957382202
sg5
I32
sa(dp1253
g2
F0.0002570152282714844
sg3
I38
sg4
F4.455327033996582
sg5
I32
sa(dp1254
g2
F0.0002491474151611328
sg3
I39
sg4
F3.69124698638916
sg5
I32
sa(dp1255
g2
F0.00023698806762695312
sg3
I40
sg4
F4.066656827926636
sg5
I32
sa(dp1256
g2
F0.00021505355834960938
sg3
I41
sg4
F3.091257095336914
sg5
I32
sa(dp1257
g2
F0.0002231597900390625
sg3
I42
sg4
F4.382932901382446
sg5
I32
sa(dp1258
g2
F0.00022101402282714844
sg3
I43
sg4
F4.6384241580963135
sg5
I32
sa(dp1259
g2
F0.00022602081298828125
sg3
I44
sg4
F5.209895849227905
sg5
I32
sa(dp1260
g2
F0.00020503997802734375
sg3
I45
sg4
F5.5415120124816895
sg5
I32
sa(dp1261
g2
F0.00022602081298828125
sg3
I46
sg4
F4.237092971801758
sg5
I32
sa(dp1262
g2
F0.0002391338348388672
sg3
I47
sg4
F4.661473989486694
sg5
I32
sa(dp1263
g2
F0.0002357959747314453
sg3
I48
sg4
F5.549869060516357
sg5
I32
sa(dp1264
g2
F0.00022292137145996094
sg3
I49
sg4
F6.452309846878052
sg5
I32
sa(dp1265
g2
F0.0001590251922607422
sg3
I5
sg4
F0.1831648349761963
sg5
I33
sa(dp1266
g2
F0.0002658367156982422
sg3
I6
sg4
F0.28754186630249023
sg5
I33
sa(dp1267
g2
F0.00020599365234375
sg3
I7
sg4
F0.2801780700683594
sg5
I33
sa(dp1268
g2
F0.00015020370483398438
sg3
I8
sg4
F0.17690396308898926
sg5
I33
sa(dp1269
g2
F0.00019288063049316406
sg3
I9
sg4
F0.39551591873168945
sg5
I33
sa(dp1270
g2
F0.0001728534698486328
sg3
I10
sg4
F0.39923691749572754
sg5
I33
sa(dp1271
g2
F0.0001800060272216797
sg3
I11
sg4
F0.38783693313598633
sg5
I33
sa(dp1272
g2
F0.0001800060272216797
sg3
I12
sg4
F0.5437450408935547
sg5
I33
sa(dp1273
g2
F0.0001819133758544922
sg3
I13
sg4
F0.6545398235321045
sg5
I33
sa(dp1274
g2
F0.0001850128173828125
sg3
I14
sg4
F0.8722198009490967
sg5
I33
sa(dp1275
g2
F0.00019598007202148438
sg3
I15
sg4
F0.662578821182251
sg5
I33
sa(dp1276
g2
F0.00017690658569335938
sg3
I16
sg4
F0.8954031467437744
sg5
I33
sa(dp1277
g2
F0.0002219676971435547
sg3
I17
sg4
F1.1174941062927246
sg5
I33
sa(dp1278
g2
F0.00015211105346679688
sg3
I18
sg4
F0.8522310256958008
sg5
I33
sa(dp1279
g2
F0.0001678466796875
sg3
I19
sg4
F1.206324815750122
sg5
I33
sa(dp1280
g2
F0.00017595291137695312
sg3
I20
sg4
F1.417863130569458
sg5
I33
sa(dp1281
g2
F0.00015997886657714844
sg3
I21
sg4
F1.6446280479431152
sg5
I33
sa(dp1282
g2
F0.0001671314239501953
sg3
I22
sg4
F1.5371708869934082
sg5
I33
sa(dp1283
g2
F0.00024390220642089844
sg3
I23
sg4
F1.9166910648345947
sg5
I33
sa(dp1284
g2
F0.00018405914306640625
sg3
I24
sg4
F2.2711870670318604
sg5
I33
sa(dp1285
g2
F0.00019097328186035156
sg3
I25
sg4
F2.245741844177246
sg5
I33
sa(dp1286
g2
F0.0002620220184326172
sg3
I26
sg4
F1.4363679885864258
sg5
I33
sa(dp1287
g2
F0.00018215179443359375
sg3
I27
sg4
F2.173771858215332
sg5
I33
sa(dp1288
g2
F0.0001990795135498047
sg3
I28
sg4
F2.4318480491638184
sg5
I33
sa(dp1289
g2
F0.00024318695068359375
sg3
I29
sg4
F2.0188169479370117
sg5
I33
sa(dp1290
g2
F0.0002410411834716797
sg3
I30
sg4
F1.963170051574707
sg5
I33
sa(dp1291
g2
F0.0001990795135498047
sg3
I31
sg4
F2.4187510013580322
sg5
I33
sa(dp1292
g2
F0.00021219253540039062
sg3
I32
sg4
F2.1887240409851074
sg5
I33
sa(dp1293
g2
F0.00024700164794921875
sg3
I33
sg4
F3.2971510887145996
sg5
I33
sa(dp1294
g2
F0.00019502639770507812
sg3
I34
sg4
F2.3708488941192627
sg5
I33
sa(dp1295
g2
F0.00020503997802734375
sg3
I35
sg4
F4.002634048461914
sg5
I33
sa(dp1296
g2
F0.0002288818359375
sg3
I36
sg4
F3.304212808609009
sg5
I33
sa(dp1297
g2
F0.00024509429931640625
sg3
I37
sg4
F3.735400915145874
sg5
I33
sa(dp1298
g2
F0.00025200843811035156
sg3
I38
sg4
F4.146819829940796
sg5
I33
sa(dp1299
g2
F0.00026798248291015625
sg3
I39
sg4
F4.071509838104248
sg5
I33
sa(dp1300
g2
F0.00022292137145996094
sg3
I40
sg4
F3.770298957824707
sg5
I33
sa(dp1301
g2
F0.00018906593322753906
sg3
I41
sg4
F3.30025315284729
sg5
I33
sa(dp1302
g2
F0.00023794174194335938
sg3
I42
sg4
F5.467682123184204
sg5
I33
sa(dp1303
g2
F0.00020813941955566406
sg3
I43
sg4
F6.459208011627197
sg5
I33
sa(dp1304
g2
F0.00028705596923828125
sg3
I44
sg4
F7.044555187225342
sg5
I33
sa(dp1305
g2
F0.0002460479736328125
sg3
I45
sg4
F7.332813024520874
sg5
I33
sa(dp1306
g2
F0.0002300739288330078
sg3
I46
sg4
F4.6210949420928955
sg5
I33
sa(dp1307
g2
F0.0002510547637939453
sg3
I47
sg4
F4.333791971206665
sg5
I33
sa(dp1308
g2
F0.00020503997802734375
sg3
I48
sg4
F5.789108037948608
sg5
I33
sa(dp1309
g2
F0.0002429485321044922
sg3
I49
sg4
F5.650617837905884
sg5
I33
sa(dp1310
g2
F0.0001518726348876953
sg3
I5
sg4
F0.10765290260314941
sg5
I34
sa(dp1311
g2
F0.00018405914306640625
sg3
I6
sg4
F0.24316787719726562
sg5
I34
sa(dp1312
g2
F0.00019598007202148438
sg3
I7
sg4
F0.24656200408935547
sg5
I34
sa(dp1313
g2
F0.00016498565673828125
sg3
I8
sg4
F0.28099799156188965
sg5
I34
sa(dp1314
g2
F0.00015997886657714844
sg3
I9
sg4
F0.34650492668151855
sg5
I34
sa(dp1315
g2
F0.00020194053649902344
sg3
I10
sg4
F0.3720419406890869
sg5
I34
sa(dp1316
g2
F0.00018405914306640625
sg3
I11
sg4
F0.5190911293029785
sg5
I34
sa(dp1317
g2
F0.00020694732666015625
sg3
I12
sg4
F0.6102831363677979
sg5
I34
sa(dp1318
g2
F0.00018095970153808594
sg3
I13
sg4
F1.15824294090271
sg5
I34
sa(dp1319
g2
F0.0005118846893310547
sg3
I14
sg4
F0.7232391834259033
sg5
I34
sa(dp1320
g2
F0.0001938343048095703
sg3
I15
sg4
F0.8144071102142334
sg5
I34
sa(dp1321
g2
F0.00037598609924316406
sg3
I16
sg4
F1.1038060188293457
sg5
I34
sa(dp1322
g2
F0.00016999244689941406
sg3
I17
sg4
F0.5455830097198486
sg5
I34
sa(dp1323
g2
F0.00019288063049316406
sg3
I18
sg4
F1.5422070026397705
sg5
I34
sa(dp1324
g2
F0.0001800060272216797
sg3
I19
sg4
F1.2580068111419678
sg5
I34
sa(dp1325
g2
F0.00020384788513183594
sg3
I20
sg4
F1.018343210220337
sg5
I34
sa(dp1326
g2
F0.00019502639770507812
sg3
I21
sg4
F1.4891259670257568
sg5
I34
sa(dp1327
g2
F0.0001919269561767578
sg3
I22
sg4
F1.4300870895385742
sg5
I34
sa(dp1328
g2
F0.00023603439331054688
sg3
I23
sg4
F2.193669080734253
sg5
I34
sa(dp1329
g2
F0.00027298927307128906
sg3
I24
sg4
F2.8633720874786377
sg5
I34
sa(dp1330
g2
F0.00019598007202148438
sg3
I25
sg4
F2.6193859577178955
sg5
I34
sa(dp1331
g2
F0.00019407272338867188
sg3
I26
sg4
F1.6399869918823242
sg5
I34
sa(dp1332
g2
F0.00033593177795410156
sg3
I27
sg4
F2.614337205886841
sg5
I34
sa(dp1333
g2
F0.0002548694610595703
sg3
I28
sg4
F2.01914381980896
sg5
I34
sa(dp1334
g2
F0.0002689361572265625
sg3
I29
sg4
F2.366882801055908
sg5
I34
sa(dp1335
g2
F0.00020194053649902344
sg3
I30
sg4
F3.1974470615386963
sg5
I34
sa(dp1336
g2
F0.00021409988403320312
sg3
I31
sg4
F3.0136921405792236
sg5
I34
sa(dp1337
g2
F0.00021195411682128906
sg3
I32
sg4
F3.3300209045410156
sg5
I34
sa(dp1338
g2
F0.00019288063049316406
sg3
I33
sg4
F4.029201030731201
sg5
I34
sa(dp1339
g2
F0.00019097328186035156
sg3
I34
sg4
F4.414373159408569
sg5
I34
sa(dp1340
g2
F0.0002238750457763672
sg3
I35
sg4
F3.7462329864501953
sg5
I34
sa(dp1341
g2
F0.00023794174194335938
sg3
I36
sg4
F3.673079013824463
sg5
I34
sa(dp1342
g2
F0.00022602081298828125
sg3
I37
sg4
F4.408499002456665
sg5
I34
sa(dp1343
g2
F0.00021696090698242188
sg3
I38
sg4
F3.7493889331817627
sg5
I34
sa(dp1344
g2
F0.00029015541076660156
sg3
I39
sg4
F3.7416088581085205
sg5
I34
sa(dp1345
g2
F0.0002639293670654297
sg3
I40
sg4
F4.165290117263794
sg5
I34
sa(dp1346
g2
F0.00022602081298828125
sg3
I41
sg4
F5.389825105667114
sg5
I34
sa(dp1347
g2
F0.000225067138671875
sg3
I42
sg4
F6.7196760177612305
sg5
I34
sa(dp1348
g2
F0.00022411346435546875
sg3
I43
sg4
F3.813317060470581
sg5
I34
sa(dp1349
g2
F0.0002961158752441406
sg3
I44
sg4
F4.494214057922363
sg5
I34
sa(dp1350
g2
F0.00022101402282714844
sg3
I45
sg4
F5.017037868499756
sg5
I34
sa(dp1351
g2
F0.0002110004425048828
sg3
I46
sg4
F6.758246898651123
sg5
I34
sa(dp1352
g2
F0.0002238750457763672
sg3
I47
sg4
F5.306816101074219
sg5
I34
sa(dp1353
g2
F0.00023698806762695312
sg3
I48
sg4
F4.886059999465942
sg5
I34
sa(dp1354
g2
F0.00021505355834960938
sg3
I49
sg4
F4.740118980407715
sg5
I34
sa(dp1355
g2
F0.0003681182861328125
sg3
I5
sg4
F0.21952486038208008
sg5
I35
sa(dp1356
g2
F0.0001709461212158203
sg3
I6
sg4
F0.20212006568908691
sg5
I35
sa(dp1357
g2
F0.00016999244689941406
sg3
I7
sg4
F0.27987098693847656
sg5
I35
sa(dp1358
g2
F0.0001609325408935547
sg3
I8
sg4
F0.7417500019073486
sg5
I35
sa(dp1359
g2
F0.0001780986785888672
sg3
I9
sg4
F0.5703670978546143
sg5
I35
sa(dp1360
g2
F0.00015783309936523438
sg3
I10
sg4
F0.39794206619262695
sg5
I35
sa(dp1361
g2
F0.00016498565673828125
sg3
I11
sg4
F0.7063570022583008
sg5
I35
sa(dp1362
g2
F0.00016808509826660156
sg3
I12
sg4
F0.6626260280609131
sg5
I35
sa(dp1363
g2
F0.00019407272338867188
sg3
I13
sg4
F0.8053550720214844
sg5
I35
sa(dp1364
g2
F0.0001800060272216797
sg3
I14
sg4
F0.6584479808807373
sg5
I35
sa(dp1365
g2
F0.00017881393432617188
sg3
I15
sg4
F0.782433032989502
sg5
I35
sa(dp1366
g2
F0.00017714500427246094
sg3
I16
sg4
F1.026681900024414
sg5
I35
sa(dp1367
g2
F0.00021576881408691406
sg3
I17
sg4
F1.280531883239746
sg5
I35
sa(dp1368
g2
F0.00021314620971679688
sg3
I18
sg4
F1.4032938480377197
sg5
I35
sa(dp1369
g2
F0.00019097328186035156
sg3
I19
sg4
F1.1411750316619873
sg5
I35
sa(dp1370
g2
F0.00018596649169921875
sg3
I20
sg4
F0.9483191967010498
sg5
I35
sa(dp1371
g2
F0.0002410411834716797
sg3
I21
sg4
F1.2321491241455078
sg5
I35
sa(dp1372
g2
F0.00020503997802734375
sg3
I22
sg4
F1.882418155670166
sg5
I35
sa(dp1373
g2
F0.00020885467529296875
sg3
I23
sg4
F1.6286108493804932
sg5
I35
sa(dp1374
g2
F0.00018405914306640625
sg3
I24
sg4
F1.7682011127471924
sg5
I35
sa(dp1375
g2
F0.00022411346435546875
sg3
I25
sg4
F2.5904388427734375
sg5
I35
sa(dp1376
g2
F0.0002751350402832031
sg3
I26
sg4
F2.170161008834839
sg5
I35
sa(dp1377
g2
F0.0001819133758544922
sg3
I27
sg4
F2.0755209922790527
sg5
I35
sa(dp1378
g2
F0.00021004676818847656
sg3
I28
sg4
F2.2329139709472656
sg5
I35
sa(dp1379
g2
F0.00020194053649902344
sg3
I29
sg4
F2.559601068496704
sg5
I35
sa(dp1380
g2
F0.00023412704467773438
sg3
I30
sg4
F2.31351900100708
sg5
I35
sa(dp1381
g2
F0.0002269744873046875
sg3
I31
sg4
F3.04081392288208
sg5
I35
sa(dp1382
g2
F0.00021505355834960938
sg3
I32
sg4
F2.897226095199585
sg5
I35
sa(dp1383
g2
F0.0002269744873046875
sg3
I33
sg4
F3.276815176010132
sg5
I35
sa(dp1384
g2
F0.0002110004425048828
sg3
I34
sg4
F3.7058119773864746
sg5
I35
sa(dp1385
g2
F0.00021505355834960938
sg3
I35
sg4
F4.2639570236206055
sg5
I35
sa(dp1386
g2
F0.0002930164337158203
sg3
I36
sg4
F3.4206860065460205
sg5
I35
sa(dp1387
g2
F0.00021600723266601562
sg3
I37
sg4
F3.3272011280059814
sg5
I35
sa(dp1388
g2
F0.0002429485321044922
sg3
I38
sg4
F5.027184963226318
sg5
I35
sa(dp1389
g2
F0.00023508071899414062
sg3
I39
sg4
F4.247320890426636
sg5
I35
sa(dp1390
g2
F0.00023293495178222656
sg3
I40
sg4
F5.048884868621826
sg5
I35
sa(dp1391
g2
F0.00030684471130371094
sg3
I41
sg4
F4.514179944992065
sg5
I35
sa(dp1392
g2
F0.00023293495178222656
sg3
I42
sg4
F5.8636698722839355
sg5
I35
sa(dp1393
g2
F0.00021791458129882812
sg3
I43
sg4
F7.4242939949035645
sg5
I35
sa(dp1394
g2
F0.00024199485778808594
sg3
I44
sg4
F5.329662084579468
sg5
I35
sa(dp1395
g2
F0.0002460479736328125
sg3
I45
sg4
F5.996050119400024
sg5
I35
sa(dp1396
g2
F0.0002582073211669922
sg3
I46
sg4
F6.287531852722168
sg5
I35
sa(dp1397
g2
F0.0002338886260986328
sg3
I47
sg4
F4.378330945968628
sg5
I35
sa(dp1398
g2
F0.000247955322265625
sg3
I48
sg4
F6.566550970077515
sg5
I35
sa(dp1399
g2
F0.00026297569274902344
sg3
I49
sg4
F7.042669057846069
sg5
I35
sa(dp1400
g2
F0.00014090538024902344
sg3
I5
sg4
F0.12470412254333496
sg5
I36
sa(dp1401
g2
F0.00015115737915039062
sg3
I6
sg4
F0.18020987510681152
sg5
I36
sa(dp1402
g2
F0.00013494491577148438
sg3
I7
sg4
F0.49203991889953613
sg5
I36
sa(dp1403
g2
F0.0001761913299560547
sg3
I8
sg4
F0.2925760746002197
sg5
I36
sa(dp1404
g2
F0.0001800060272216797
sg3
I9
sg4
F0.4716379642486572
sg5
I36
sa(dp1405
g2
F0.00018405914306640625
sg3
I10
sg4
F0.5668349266052246
sg5
I36
sa(dp1406
g2
F0.00016307830810546875
sg3
I11
sg4
F1.0963530540466309
sg5
I36
sa(dp1407
g2
F0.00024199485778808594
sg3
I12
sg4
F0.3813040256500244
sg5
I36
sa(dp1408
g2
F0.00017380714416503906
sg3
I13
sg4
F0.7134559154510498
sg5
I36
sa(dp1409
g2
F0.00031185150146484375
sg3
I14
sg4
F0.7018618583679199
sg5
I36
sa(dp1410
g2
F0.0001881122589111328
sg3
I15
sg4
F0.8411288261413574
sg5
I36
sa(dp1411
g2
F0.000164031982421875
sg3
I16
sg4
F0.9946410655975342
sg5
I36
sa(dp1412
g2
F0.00017595291137695312
sg3
I17
sg4
F1.0799918174743652
sg5
I36
sa(dp1413
g2
F0.00018215179443359375
sg3
I18
sg4
F1.1482269763946533
sg5
I36
sa(dp1414
g2
F0.0001900196075439453
sg3
I19
sg4
F1.5030908584594727
sg5
I36
sa(dp1415
g2
F0.00017189979553222656
sg3
I20
sg4
F1.9284801483154297
sg5
I36
sa(dp1416
g2
F0.0002269744873046875
sg3
I21
sg4
F1.7427949905395508
sg5
I36
sa(dp1417
g2
F0.0002319812774658203
sg3
I22
sg4
F1.603039026260376
sg5
I36
sa(dp1418
g2
F0.00017881393432617188
sg3
I23
sg4
F1.7256782054901123
sg5
I36
sa(dp1419
g2
F0.0001938343048095703
sg3
I24
sg4
F2.7087719440460205
sg5
I36
sa(dp1420
g2
F0.00017905235290527344
sg3
I25
sg4
F1.5480670928955078
sg5
I36
sa(dp1421
g2
F0.0002200603485107422
sg3
I26
sg4
F1.5544211864471436
sg5
I36
sa(dp1422
g2
F0.00018978118896484375
sg3
I27
sg4
F3.064286947250366
sg5
I36
sa(dp1423
g2
F0.00017714500427246094
sg3
I28
sg4
F2.503013849258423
sg5
I36
sa(dp1424
g2
F0.00021719932556152344
sg3
I29
sg4
F2.1698999404907227
sg5
I36
sa(dp1425
g2
F0.000225067138671875
sg3
I30
sg4
F3.8809890747070312
sg5
I36
sa(dp1426
g2
F0.00018095970153808594
sg3
I31
sg4
F3.8050849437713623
sg5
I36
sa(dp1427
g2
F0.00023508071899414062
sg3
I32
sg4
F2.077949047088623
sg5
I36
sa(dp1428
g2
F0.00025200843811035156
sg3
I33
sg4
F4.6871068477630615
sg5
I36
sa(dp1429
g2
F0.00019121170043945312
sg3
I34
sg4
F4.348443984985352
sg5
I36
sa(dp1430
g2
F0.00029206275939941406
sg3
I35
sg4
F2.306938886642456
sg5
I36
sa(dp1431
g2
F0.00019097328186035156
sg3
I36
sg4
F2.8698930740356445
sg5
I36
sa(dp1432
g2
F0.0001938343048095703
sg3
I37
sg4
F3.920365810394287
sg5
I36
sa(dp1433
g2
F0.00020313262939453125
sg3
I38
sg4
F4.5126190185546875
sg5
I36
sa(dp1434
g2
F0.000244140625
sg3
I39
sg4
F4.706979036331177
sg5
I36
sa(dp1435
g2
F0.0002410411834716797
sg3
I40
sg4
F4.341753005981445
sg5
I36
sa(dp1436
g2
F0.0002570152282714844
sg3
I41
sg4
F3.1621861457824707
sg5
I36
sa(dp1437
g2
F0.00023508071899414062
sg3
I42
sg4
F6.079088926315308
sg5
I36
sa(dp1438
g2
F0.00019788742065429688
sg3
I43
sg4
F5.477863073348999
sg5
I36
sa(dp1439
g2
F0.00024890899658203125
sg3
I44
sg4
F4.992804050445557
sg5
I36
sa(dp1440
g2
F0.0002551078796386719
sg3
I45
sg4
F3.8630049228668213
sg5
I36
sa(dp1441
g2
F0.0002219676971435547
sg3
I46
sg4
F5.860004186630249
sg5
I36
sa(dp1442
g2
F0.00025391578674316406
sg3
I47
sg4
F6.913495063781738
sg5
I36
sa(dp1443
g2
F0.0002532005310058594
sg3
I48
sg4
F7.577771902084351
sg5
I36
sa(dp1444
g2
F0.0002319812774658203
sg3
I49
sg4
F5.637448787689209
sg5
I36
sa(dp1445
g2
F0.00015211105346679688
sg3
I5
sg4
F0.12737202644348145
sg5
I37
sa(dp1446
g2
F0.0002760887145996094
sg3
I6
sg4
F0.3095550537109375
sg5
I37
sa(dp1447
g2
F0.0001690387725830078
sg3
I7
sg4
F0.18790483474731445
sg5
I37
sa(dp1448
g2
F0.00016498565673828125
sg3
I8
sg4
F0.3687760829925537
sg5
I37
sa(dp1449
g2
F0.00020313262939453125
sg3
I9
sg4
F0.7112760543823242
sg5
I37
sa(dp1450
g2
F0.0001659393310546875
sg3
I10
sg4
F0.42060112953186035
sg5
I37
sa(dp1451
g2
F0.0001499652862548828
sg3
I11
sg4
F0.6160380840301514
sg5
I37
sa(dp1452
g2
F0.00017023086547851562
sg3
I12
sg4
F0.6277718544006348
sg5
I37
sa(dp1453
g2
F0.0001900196075439453
sg3
I13
sg4
F0.7937121391296387
sg5
I37
sa(dp1454
g2
F0.0001690387725830078
sg3
I14
sg4
F0.9980161190032959
sg5
I37
sa(dp1455
g2
F0.00020599365234375
sg3
I15
sg4
F1.3096280097961426
sg5
I37
sa(dp1456
g2
F0.00019502639770507812
sg3
I16
sg4
F1.5167019367218018
sg5
I37
sa(dp1457
g2
F0.00033783912658691406
sg3
I17
sg4
F1.6068451404571533
sg5
I37
sa(dp1458
g2
F0.00019407272338867188
sg3
I18
sg4
F1.0561621189117432
sg5
I37
sa(dp1459
g2
F0.00021910667419433594
sg3
I19
sg4
F1.4534881114959717
sg5
I37
sa(dp1460
g2
F0.00021505355834960938
sg3
I20
sg4
F1.834395170211792
sg5
I37
sa(dp1461
g2
F0.000186920166015625
sg3
I21
sg4
F1.464317798614502
sg5
I37
sa(dp1462
g2
F0.00018906593322753906
sg3
I22
sg4
F1.9936201572418213
sg5
I37
sa(dp1463
g2
F0.00020813941955566406
sg3
I23
sg4
F1.1066100597381592
sg5
I37
sa(dp1464
g2
F0.00020599365234375
sg3
I24
sg4
F2.374552011489868
sg5
I37
sa(dp1465
g2
F0.0001990795135498047
sg3
I25
sg4
F2.520451068878174
sg5
I37
sa(dp1466
g2
F0.00020599365234375
sg3
I26
sg4
F2.1858010292053223
sg5
I37
sa(dp1467
g2
F0.0001990795135498047
sg3
I27
sg4
F2.421489953994751
sg5
I37
sa(dp1468
g2
F0.00020694732666015625
sg3
I28
sg4
F2.152733087539673
sg5
I37
sa(dp1469
g2
F0.0001888275146484375
sg3
I29
sg4
F2.6696219444274902
sg5
I37
sa(dp1470
g2
F0.00024199485778808594
sg3
I30
sg4
F3.7273271083831787
sg5
I37
sa(dp1471
g2
F0.00021004676818847656
sg3
I31
sg4
F2.1996910572052
sg5
I37
sa(dp1472
g2
F0.0001919269561767578
sg3
I32
sg4
F3.675179958343506
sg5
I37
sa(dp1473
g2
F0.0002429485321044922
sg3
I33
sg4
F3.412154197692871
sg5
I37
sa(dp1474
g2
F0.0002269744873046875
sg3
I34
sg4
F4.486953973770142
sg5
I37
sa(dp1475
g2
F0.00022912025451660156
sg3
I35
sg4
F3.9581339359283447
sg5
I37
sa(dp1476
g2
F0.0002639293670654297
sg3
I36
sg4
F4.82846212387085
sg5
I37
sa(dp1477
g2
F0.00029206275939941406
sg3
I37
sg4
F3.7098679542541504
sg5
I37
sa(dp1478
g2
F0.00022292137145996094
sg3
I38
sg4
F3.834411859512329
sg5
I37
sa(dp1479
g2
F0.00019502639770507812
sg3
I39
sg4
F3.255642890930176
sg5
I37
sa(dp1480
g2
F0.00023698806762695312
sg3
I40
sg4
F5.6025190353393555
sg5
I37
sa(dp1481
g2
F0.0002529621124267578
sg3
I41
sg4
F4.207119941711426
sg5
I37
sa(dp1482
g2
F0.00026297569274902344
sg3
I42
sg4
F5.286486864089966
sg5
I37
sa(dp1483
g2
F0.0002598762512207031
sg3
I43
sg4
F5.855205059051514
sg5
I37
sa(dp1484
g2
F0.00022482872009277344
sg3
I44
sg4
F5.277537107467651
sg5
I37
sa(dp1485
g2
F0.00024199485778808594
sg3
I45
sg4
F4.621572971343994
sg5
I37
sa(dp1486
g2
F0.00025916099548339844
sg3
I46
sg4
F5.565461874008179
sg5
I37
sa(dp1487
g2
F0.00024890899658203125
sg3
I47
sg4
F8.536388158798218
sg5
I37
sa(dp1488
g2
F0.00023698806762695312
sg3
I48
sg4
F5.882488012313843
sg5
I37
sa(dp1489
g2
F0.0002410411834716797
sg3
I49
sg4
F6.782721996307373
sg5
I37
sa(dp1490
g2
F0.00015997886657714844
sg3
I5
sg4
F0.17398309707641602
sg5
I38
sa(dp1491
g2
F0.00016999244689941406
sg3
I6
sg4
F0.2554287910461426
sg5
I38
sa(dp1492
g2
F0.00018286705017089844
sg3
I7
sg4
F0.27278900146484375
sg5
I38
sa(dp1493
g2
F0.0001780986785888672
sg3
I8
sg4
F0.558121919631958
sg5
I38
sa(dp1494
g2
F0.00019121170043945312
sg3
I9
sg4
F0.27938294410705566
sg5
I38
sa(dp1495
g2
F0.00016617774963378906
sg3
I10
sg4
F0.4339578151702881
sg5
I38
sa(dp1496
g2
F0.00018215179443359375
sg3
I11
sg4
F0.5071768760681152
sg5
I38
sa(dp1497
g2
F0.0001590251922607422
sg3
I12
sg4
F0.8402669429779053
sg5
I38
sa(dp1498
g2
F0.0004210472106933594
sg3
I13
sg4
F0.45275402069091797
sg5
I38
sa(dp1499
g2
F0.0002110004425048828
sg3
I14
sg4
F0.9886789321899414
sg5
I38
sa(dp1500
g2
F0.00014901161193847656
sg3
I15
sg4
F1.2438018321990967
sg5
I38
sa(dp1501
g2
F0.00018405914306640625
sg3
I16
sg4
F0.9933688640594482
sg5
I38
sa(dp1502
g2
F0.00016808509826660156
sg3
I17
sg4
F1.6347439289093018
sg5
I38
sa(dp1503
g2
F0.00019288063049316406
sg3
I18
sg4
F1.3000609874725342
sg5
I38
sa(dp1504
g2
F0.00020813941955566406
sg3
I19
sg4
F1.5481760501861572
sg5
I38
sa(dp1505
g2
F0.0002009868621826172
sg3
I20
sg4
F1.577012062072754
sg5
I38
sa(dp1506
g2
F0.00022292137145996094
sg3
I21
sg4
F1.4465069770812988
sg5
I38
sa(dp1507
g2
F0.00019598007202148438
sg3
I22
sg4
F2.3848462104797363
sg5
I38
sa(dp1508
g2
F0.00027489662170410156
sg3
I23
sg4
F1.8331921100616455
sg5
I38
sa(dp1509
g2
F0.00022411346435546875
sg3
I24
sg4
F2.5463221073150635
sg5
I38
sa(dp1510
g2
F0.0001800060272216797
sg3
I25
sg4
F1.9820749759674072
sg5
I38
sa(dp1511
g2
F0.00023984909057617188
sg3
I26
sg4
F1.433635950088501
sg5
I38
sa(dp1512
g2
F0.00018095970153808594
sg3
I27
sg4
F2.4262828826904297
sg5
I38
sa(dp1513
g2
F0.00021982192993164062
sg3
I28
sg4
F2.1538310050964355
sg5
I38
sa(dp1514
g2
F0.00020313262939453125
sg3
I29
sg4
F2.141369104385376
sg5
I38
sa(dp1515
g2
F0.00020599365234375
sg3
I30
sg4
F2.688655138015747
sg5
I38
sa(dp1516
g2
F0.0002040863037109375
sg3
I31
sg4
F2.8643300533294678
sg5
I38
sa(dp1517
g2
F0.00021696090698242188
sg3
I32
sg4
F3.2872819900512695
sg5
I38
sa(dp1518
g2
F0.0002551078796386719
sg3
I33
sg4
F3.699892997741699
sg5
I38
sa(dp1519
g2
F0.00026988983154296875
sg3
I34
sg4
F2.5472168922424316
sg5
I38
sa(dp1520
g2
F0.00024700164794921875
sg3
I35
sg4
F2.8716890811920166
sg5
I38
sa(dp1521
g2
F0.00021600723266601562
sg3
I36
sg4
F5.74069881439209
sg5
I38
sa(dp1522
g2
F0.0002300739288330078
sg3
I37
sg4
F5.291472911834717
sg5
I38
sa(dp1523
g2
F0.00024509429931640625
sg3
I38
sg4
F3.0755178928375244
sg5
I38
sa(dp1524
g2
F0.0002009868621826172
sg3
I39
sg4
F5.406926870346069
sg5
I38
sa(dp1525
g2
F0.0002429485321044922
sg3
I40
sg4
F5.108520984649658
sg5
I38
sa(dp1526
g2
F0.00018787384033203125
sg3
I41
sg4
F5.151355028152466
sg5
I38
sa(dp1527
g2
F0.0002701282501220703
sg3
I42
sg4
F7.4329750537872314
sg5
I38
sa(dp1528
g2
F0.0002570152282714844
sg3
I43
sg4
F4.311578989028931
sg5
I38
sa(dp1529
g2
F0.00023818016052246094
sg3
I44
sg4
F5.223199844360352
sg5
I38
sa(dp1530
g2
F0.00028395652770996094
sg3
I45
sg4
F4.9407031536102295
sg5
I38
sa(dp1531
g2
F0.0002701282501220703
sg3
I46
sg4
F5.178146123886108
sg5
I38
sa(dp1532
g2
F0.0002448558807373047
sg3
I47
sg4
F8.069030046463013
sg5
I38
sa(dp1533
g2
F0.0002200603485107422
sg3
I48
sg4
F4.688630104064941
sg5
I38
sa(dp1534
g2
F0.00027108192443847656
sg3
I49
sg4
F5.950423002243042
sg5
I38
sa(dp1535
g2
F0.00015401840209960938
sg3
I5
sg4
F0.24523186683654785
sg5
I39
sa(dp1536
g2
F0.00015020370483398438
sg3
I6
sg4
F0.38182592391967773
sg5
I39
sa(dp1537
g2
F0.0001919269561767578
sg3
I7
sg4
F0.351931095123291
sg5
I39
sa(dp1538
g2
F0.00019884109497070312
sg3
I8
sg4
F0.36354589462280273
sg5
I39
sa(dp1539
g2
F0.00014090538024902344
sg3
I9
sg4
F0.4371941089630127
sg5
I39
sa(dp1540
g2
F0.0001900196075439453
sg3
I10
sg4
F0.7786421775817871
sg5
I39
sa(dp1541
g2
F0.00017690658569335938
sg3
I11
sg4
F0.508404016494751
sg5
I39
sa(dp1542
g2
F0.00018787384033203125
sg3
I12
sg4
F0.6506390571594238
sg5
I39
sa(dp1543
g2
F0.00020885467529296875
sg3
I13
sg4
F0.6416749954223633
sg5
I39
sa(dp1544
g2
F0.00015807151794433594
sg3
I14
sg4
F1.1033999919891357
sg5
I39
sa(dp1545
g2
F0.00022411346435546875
sg3
I15
sg4
F1.3320679664611816
sg5
I39
sa(dp1546
g2
F0.00018215179443359375
sg3
I16
sg4
F1.2568449974060059
sg5
I39
sa(dp1547
g2
F0.0002028942108154297
sg3
I17
sg4
F1.1381771564483643
sg5
I39
sa(dp1548
g2
F0.00016880035400390625
sg3
I18
sg4
F1.7238869667053223
sg5
I39
sa(dp1549
g2
F0.00019216537475585938
sg3
I19
sg4
F2.4715490341186523
sg5
I39
sa(dp1550
g2
F0.00020384788513183594
sg3
I20
sg4
F1.5258409976959229
sg5
I39
sa(dp1551
g2
F0.0001850128173828125
sg3
I21
sg4
F1.5300819873809814
sg5
I39
sa(dp1552
g2
F0.0001609325408935547
sg3
I22
sg4
F1.4274101257324219
sg5
I39
sa(dp1553
g2
F0.00022602081298828125
sg3
I23
sg4
F2.3774631023406982
sg5
I39
sa(dp1554
g2
F0.00023794174194335938
sg3
I24
sg4
F1.990403175354004
sg5
I39
sa(dp1555
g2
F0.00019502639770507812
sg3
I25
sg4
F2.2516419887542725
sg5
I39
sa(dp1556
g2
F0.00020599365234375
sg3
I26
sg4
F3.310706853866577
sg5
I39
sa(dp1557
g2
F0.0001800060272216797
sg3
I27
sg4
F1.6859121322631836
sg5
I39
sa(dp1558
g2
F0.00021409988403320312
sg3
I28
sg4
F3.6232059001922607
sg5
I39
sa(dp1559
g2
F0.00018286705017089844
sg3
I29
sg4
F2.908473014831543
sg5
I39
sa(dp1560
g2
F0.0002129077911376953
sg3
I30
sg4
F3.5271451473236084
sg5
I39
sa(dp1561
g2
F0.00020384788513183594
sg3
I31
sg4
F3.228267192840576
sg5
I39
sa(dp1562
g2
F0.0002009868621826172
sg3
I32
sg4
F3.8550169467926025
sg5
I39
sa(dp1563
g2
F0.00021910667419433594
sg3
I33
sg4
F3.1458499431610107
sg5
I39
sa(dp1564
g2
F0.00022983551025390625
sg3
I34
sg4
F2.820063829421997
sg5
I39
sa(dp1565
g2
F0.00025582313537597656
sg3
I35
sg4
F3.199995994567871
sg5
I39
sa(dp1566
g2
F0.00020194053649902344
sg3
I36
sg4
F3.283468008041382
sg5
I39
sa(dp1567
g2
F0.00019502639770507812
sg3
I37
sg4
F3.541975975036621
sg5
I39
sa(dp1568
g2
F0.00023603439331054688
sg3
I38
sg4
F3.601283073425293
sg5
I39
sa(dp1569
g2
F0.0002300739288330078
sg3
I39
sg4
F4.860717058181763
sg5
I39
sa(dp1570
g2
F0.0002541542053222656
sg3
I40
sg4
F5.202430009841919
sg5
I39
sa(dp1571
g2
F0.0002620220184326172
sg3
I41
sg4
F4.991361856460571
sg5
I39
sa(dp1572
g2
F0.00028014183044433594
sg3
I42
sg4
F4.108328104019165
sg5
I39
sa(dp1573
g2
F0.00020194053649902344
sg3
I43
sg4
F5.265563011169434
sg5
I39
sa(dp1574
g2
F0.0002129077911376953
sg3
I44
sg4
F6.5139830112457275
sg5
I39
sa(dp1575
g2
F0.0002391338348388672
sg3
I45
sg4
F5.794867992401123
sg5
I39
sa(dp1576
g2
F0.00021004676818847656
sg3
I46
sg4
F6.806597948074341
sg5
I39
sa(dp1577
g2
F0.00023293495178222656
sg3
I47
sg4
F8.401164054870605
sg5
I39
sa(dp1578
g2
F0.00023698806762695312
sg3
I48
sg4
F6.948480129241943
sg5
I39
sa(dp1579
g2
F0.0002110004425048828
sg3
I49
sg4
F7.6804039478302
sg5
I39
sa(dp1580
g2
F0.0002028942108154297
sg3
I5
sg4
F0.2658348083496094
sg5
I40
sa(dp1581
g2
F0.00019598007202148438
sg3
I6
sg4
F0.15682196617126465
sg5
I40
sa(dp1582
g2
F0.00019598007202148438
sg3
I7
sg4
F0.3299741744995117
sg5
I40
sa(dp1583
g2
F0.00017309188842773438
sg3
I8
sg4
F0.37499189376831055
sg5
I40
sa(dp1584
g2
F0.0001609325408935547
sg3
I9
sg4
F0.5484559535980225
sg5
I40
sa(dp1585
g2
F0.0001499652862548828
sg3
I10
sg4
F0.534804105758667
sg5
I40
sa(dp1586
g2
F0.0002200603485107422
sg3
I11
sg4
F0.7108731269836426
sg5
I40
sa(dp1587
g2
F0.00015783309936523438
sg3
I12
sg4
F1.085815191268921
sg5
I40
sa(dp1588
g2
F0.00014901161193847656
sg3
I13
sg4
F1.2552611827850342
sg5
I40
sa(dp1589
g2
F0.0001690387725830078
sg3
I14
sg4
F0.7042331695556641
sg5
I40
sa(dp1590
g2
F0.00018715858459472656
sg3
I15
sg4
F1.3975110054016113
sg5
I40
sa(dp1591
g2
F0.00016307830810546875
sg3
I16
sg4
F0.9391899108886719
sg5
I40
sa(dp1592
g2
F0.0001819133758544922
sg3
I17
sg4
F1.264611005783081
sg5
I40
sa(dp1593
g2
F0.0002079010009765625
sg3
I18
sg4
F1.4002809524536133
sg5
I40
sa(dp1594
g2
F0.00016689300537109375
sg3
I19
sg4
F1.5705959796905518
sg5
I40
sa(dp1595
g2
F0.00024509429931640625
sg3
I20
sg4
F1.666684865951538
sg5
I40
sa(dp1596
g2
F0.0002448558807373047
sg3
I21
sg4
F1.7576642036437988
sg5
I40
sa(dp1597
g2
F0.000247955322265625
sg3
I22
sg4
F1.452329158782959
sg5
I40
sa(dp1598
g2
F0.00017404556274414062
sg3
I23
sg4
F1.8297150135040283
sg5
I40
sa(dp1599
g2
F0.00019407272338867188
sg3
I24
sg4
F2.3590259552001953
sg5
I40
sa(dp1600
g2
F0.00038504600524902344
sg3
I25
sg4
F3.246277093887329
sg5
I40
sa(dp1601
g2
F0.0001728534698486328
sg3
I26
sg4
F2.1388609409332275
sg5
I40
sa(dp1602
g2
F0.00021600723266601562
sg3
I27
sg4
F2.4895458221435547
sg5
I40
sa(dp1603
g2
F0.00021219253540039062
sg3
I28
sg4
F2.79866886138916
sg5
I40
sa(dp1604
g2
F0.000186920166015625
sg3
I29
sg4
F3.638746976852417
sg5
I40
sa(dp1605
g2
F0.000225067138671875
sg3
I30
sg4
F3.0373568534851074
sg5
I40
sa(dp1606
g2
F0.0002589225769042969
sg3
I31
sg4
F3.544682025909424
sg5
I40
sa(dp1607
g2
F0.00024819374084472656
sg3
I32
sg4
F3.124924898147583
sg5
I40
sa(dp1608
g2
F0.00020813941955566406
sg3
I33
sg4
F4.506443977355957
sg5
I40
sa(dp1609
g2
F0.00019502639770507812
sg3
I34
sg4
F4.03857684135437
sg5
I40
sa(dp1610
g2
F0.00024199485778808594
sg3
I35
sg4
F3.449357032775879
sg5
I40
sa(dp1611
g2
F0.00022983551025390625
sg3
I36
sg4
F4.689254999160767
sg5
I40
sa(dp1612
g2
F0.00023102760314941406
sg3
I37
sg4
F4.769629001617432
sg5
I40
sa(dp1613
g2
F0.00023698806762695312
sg3
I38
sg4
F4.4201319217681885
sg5
I40
sa(dp1614
g2
F0.00028204917907714844
sg3
I39
sg4
F3.778027057647705
sg5
I40
sa(dp1615
g2
F0.0002429485321044922
sg3
I40
sg4
F5.342319965362549
sg5
I40
sa(dp1616
g2
F0.00021195411682128906
sg3
I41
sg4
F4.329775810241699
sg5
I40
sa(dp1617
g2
F0.0002830028533935547
sg3
I42
sg4
F4.971363067626953
sg5
I40
sa(dp1618
g2
F0.0002460479736328125
sg3
I43
sg4
F5.931179046630859
sg5
I40
sa(dp1619
g2
F0.00024008750915527344
sg3
I44
sg4
F4.673480033874512
sg5
I40
sa(dp1620
g2
F0.00023984909057617188
sg3
I45
sg4
F5.0556371212005615
sg5
I40
sa(dp1621
g2
F0.0002410411834716797
sg3
I46
sg4
F6.226749897003174
sg5
I40
sa(dp1622
g2
F0.00023603439331054688
sg3
I47
sg4
F5.310631036758423
sg5
I40
sa(dp1623
g2
F0.00030612945556640625
sg3
I48
sg4
F9.58706283569336
sg5
I40
sa(dp1624
g2
F0.00021886825561523438
sg3
I49
sg4
F9.298020124435425
sg5
I40
sa(dp1625
g2
F0.00014591217041015625
sg3
I5
sg4
F0.19835686683654785
sg5
I41
sa(dp1626
g2
F0.00013589859008789062
sg3
I6
sg4
F0.2688729763031006
sg5
I41
sa(dp1627
g2
F0.0001728534698486328
sg3
I7
sg4
F0.28563499450683594
sg5
I41
sa(dp1628
g2
F0.00014591217041015625
sg3
I8
sg4
F0.3623690605163574
sg5
I41
sa(dp1629
g2
F0.0001900196075439453
sg3
I9
sg4
F0.4393908977508545
sg5
I41
sa(dp1630
g2
F0.0001499652862548828
sg3
I10
sg4
F0.6613411903381348
sg5
I41
sa(dp1631
g2
F0.00020694732666015625
sg3
I11
sg4
F0.899738073348999
sg5
I41
sa(dp1632
g2
F0.00017189979553222656
sg3
I12
sg4
F0.6775820255279541
sg5
I41
sa(dp1633
g2
F0.00016498565673828125
sg3
I13
sg4
F0.7927200794219971
sg5
I41
sa(dp1634
g2
F0.00016808509826660156
sg3
I14
sg4
F0.6074268817901611
sg5
I41
sa(dp1635
g2
F0.0002510547637939453
sg3
I15
sg4
F1.2445740699768066
sg5
I41
sa(dp1636
g2
F0.00016188621520996094
sg3
I16
sg4
F1.3048648834228516
sg5
I41
sa(dp1637
g2
F0.0002071857452392578
sg3
I17
sg4
F1.6077840328216553
sg5
I41
sa(dp1638
g2
F0.00017905235290527344
sg3
I18
sg4
F1.3065719604492188
sg5
I41
sa(dp1639
g2
F0.00020599365234375
sg3
I19
sg4
F1.9192500114440918
sg5
I41
sa(dp1640
g2
F0.0001819133758544922
sg3
I20
sg4
F1.7595548629760742
sg5
I41
sa(dp1641
g2
F0.00020599365234375
sg3
I21
sg4
F1.9489941596984863
sg5
I41
sa(dp1642
g2
F0.0002028942108154297
sg3
I22
sg4
F1.6293280124664307
sg5
I41
sa(dp1643
g2
F0.00023603439331054688
sg3
I23
sg4
F3.496380090713501
sg5
I41
sa(dp1644
g2
F0.00023698806762695312
sg3
I24
sg4
F2.1111459732055664
sg5
I41
sa(dp1645
g2
F0.00017595291137695312
sg3
I25
sg4
F1.9783101081848145
sg5
I41
sa(dp1646
g2
F0.00018715858459472656
sg3
I26
sg4
F2.472808837890625
sg5
I41
sa(dp1647
g2
F0.00025200843811035156
sg3
I27
sg4
F2.209049940109253
sg5
I41
sa(dp1648
g2
F0.00020194053649902344
sg3
I28
sg4
F2.6083459854125977
sg5
I41
sa(dp1649
g2
F0.0002219676971435547
sg3
I29
sg4
F3.554811954498291
sg5
I41
sa(dp1650
g2
F0.00027108192443847656
sg3
I30
sg4
F2.403839111328125
sg5
I41
sa(dp1651
g2
F0.0002269744873046875
sg3
I31
sg4
F3.554227113723755
sg5
I41
sa(dp1652
g2
F0.0001919269561767578
sg3
I32
sg4
F3.7032599449157715
sg5
I41
sa(dp1653
g2
F0.0002491474151611328
sg3
I33
sg4
F4.7954559326171875
sg5
I41
sa(dp1654
g2
F0.0002300739288330078
sg3
I34
sg4
F4.237873077392578
sg5
I41
sa(dp1655
g2
F0.0002288818359375
sg3
I35
sg4
F4.347264051437378
sg5
I41
sa(dp1656
g2
F0.00021600723266601562
sg3
I36
sg4
F3.511143922805786
sg5
I41
sa(dp1657
g2
F0.00025200843811035156
sg3
I37
sg4
F5.461909055709839
sg5
I41
sa(dp1658
g2
F0.00021195411682128906
sg3
I38
sg4
F4.327872037887573
sg5
I41
sa(dp1659
g2
F0.0002429485321044922
sg3
I39
sg4
F5.20008397102356
sg5
I41
sa(dp1660
g2
F0.00024580955505371094
sg3
I40
sg4
F4.449428081512451
sg5
I41
sa(dp1661
g2
F0.00026488304138183594
sg3
I41
sg4
F4.605504035949707
sg5
I41
sa(dp1662
g2
F0.00024008750915527344
sg3
I42
sg4
F6.690018892288208
sg5
I41
sa(dp1663
g2
F0.00024318695068359375
sg3
I43
sg4
F3.7413699626922607
sg5
I41
sa(dp1664
g2
F0.00022292137145996094
sg3
I44
sg4
F5.874766826629639
sg5
I41
sa(dp1665
g2
F0.0002269744873046875
sg3
I45
sg4
F8.27835988998413
sg5
I41
sa(dp1666
g2
F0.0002510547637939453
sg3
I46
sg4
F7.686341047286987
sg5
I41
sa(dp1667
g2
F0.00027108192443847656
sg3
I47
sg4
F6.301794052124023
sg5
I41
sa(dp1668
g2
F0.0002491474151611328
sg3
I48
sg4
F6.798374891281128
sg5
I41
sa(dp1669
g2
F0.00033593177795410156
sg3
I49
sg4
F6.601480007171631
sg5
I41
sa(dp1670
g2
F0.0001780986785888672
sg3
I5
sg4
F0.17502808570861816
sg5
I42
sa(dp1671
g2
F0.00018095970153808594
sg3
I6
sg4
F0.425792932510376
sg5
I42
sa(dp1672
g2
F0.00021004676818847656
sg3
I7
sg4
F0.3975241184234619
sg5
I42
sa(dp1673
g2
F0.00018405914306640625
sg3
I8
sg4
F0.594404935836792
sg5
I42
sa(dp1674
g2
F0.00018095970153808594
sg3
I9
sg4
F0.3718128204345703
sg5
I42
sa(dp1675
g2
F0.00017905235290527344
sg3
I10
sg4
F0.3562920093536377
sg5
I42
sa(dp1676
g2
F0.0001480579376220703
sg3
I11
sg4
F0.6177098751068115
sg5
I42
sa(dp1677
g2
F0.0001919269561767578
sg3
I12
sg4
F1.1030361652374268
sg5
I42
sa(dp1678
g2
F0.00014710426330566406
sg3
I13
sg4
F0.8828110694885254
sg5
I42
sa(dp1679
g2
F0.0001900196075439453
sg3
I14
sg4
F1.0426790714263916
sg5
I42
sa(dp1680
g2
F0.0001590251922607422
sg3
I15
sg4
F1.3865289688110352
sg5
I42
sa(dp1681
g2
F0.00016689300537109375
sg3
I16
sg4
F1.244894027709961
sg5
I42
sa(dp1682
g2
F0.0001850128173828125
sg3
I17
sg4
F2.1940581798553467
sg5
I42
sa(dp1683
g2
F0.00018215179443359375
sg3
I18
sg4
F1.5579588413238525
sg5
I42
sa(dp1684
g2
F0.0001811981201171875
sg3
I19
sg4
F1.6525778770446777
sg5
I42
sa(dp1685
g2
F0.00016999244689941406
sg3
I20
sg4
F1.3014631271362305
sg5
I42
sa(dp1686
g2
F0.000186920166015625
sg3
I21
sg4
F1.5423669815063477
sg5
I42
sa(dp1687
g2
F0.00017189979553222656
sg3
I22
sg4
F1.6625730991363525
sg5
I42
sa(dp1688
g2
F0.00024199485778808594
sg3
I23
sg4
F1.462141990661621
sg5
I42
sa(dp1689
g2
F0.0002930164337158203
sg3
I24
sg4
F2.1683311462402344
sg5
I42
sa(dp1690
g2
F0.0002009868621826172
sg3
I25
sg4
F1.9173221588134766
sg5
I42
sa(dp1691
g2
F0.00022792816162109375
sg3
I26
sg4
F2.457705020904541
sg5
I42
sa(dp1692
g2
F0.000186920166015625
sg3
I27
sg4
F3.2285101413726807
sg5
I42
sa(dp1693
g2
F0.0002269744873046875
sg3
I28
sg4
F3.7300760746002197
sg5
I42
sa(dp1694
g2
F0.00018405914306640625
sg3
I29
sg4
F2.8391880989074707
sg5
I42
sa(dp1695
g2
F0.00021409988403320312
sg3
I30
sg4
F3.4927241802215576
sg5
I42
sa(dp1696
g2
F0.0001900196075439453
sg3
I31
sg4
F2.952609062194824
sg5
I42
sa(dp1697
g2
F0.000202178955078125
sg3
I32
sg4
F3.31734299659729
sg5
I42
sa(dp1698
g2
F0.0002532005310058594
sg3
I33
sg4
F5.507082939147949
sg5
I42
sa(dp1699
g2
F0.00028705596923828125
sg3
I34
sg4
F3.2334890365600586
sg5
I42
sa(dp1700
g2
F0.0002219676971435547
sg3
I35
sg4
F5.409517049789429
sg5
I42
sa(dp1701
g2
F0.0002448558807373047
sg3
I36
sg4
F3.80334210395813
sg5
I42
sa(dp1702
g2
F0.0002269744873046875
sg3
I37
sg4
F5.451540946960449
sg5
I42
sa(dp1703
g2
F0.0002460479736328125
sg3
I38
sg4
F4.796779155731201
sg5
I42
sa(dp1704
g2
F0.00024199485778808594
sg3
I39
sg4
F4.1404829025268555
sg5
I42
sa(dp1705
g2
F0.0002448558807373047
sg3
I40
sg4
F3.28423810005188
sg5
I42
sa(dp1706
g2
F0.0002288818359375
sg3
I41
sg4
F5.857786178588867
sg5
I42
sa(dp1707
g2
F0.00023794174194335938
sg3
I42
sg4
F5.932532072067261
sg5
I42
sa(dp1708
g2
F0.00022411346435546875
sg3
I43
sg4
F6.175200939178467
sg5
I42
sa(dp1709
g2
F0.0002510547637939453
sg3
I44
sg4
F5.680091142654419
sg5
I42
sa(dp1710
g2
F0.00023794174194335938
sg3
I45
sg4
F5.039955139160156
sg5
I42
sa(dp1711
g2
F0.0002429485321044922
sg3
I46
sg4
F5.047261953353882
sg5
I42
sa(dp1712
g2
F0.00025200843811035156
sg3
I47
sg4
F6.7689831256866455
sg5
I42
sa(dp1713
g2
F0.000286102294921875
sg3
I48
sg4
F8.500115871429443
sg5
I42
sa(dp1714
g2
F0.0002181529998779297
sg3
I49
sg4
F7.11205792427063
sg5
I42
sa(dp1715
g2
F0.00017595291137695312
sg3
I5
sg4
F0.10197591781616211
sg5
I43
sa(dp1716
g2
F0.00022482872009277344
sg3
I6
sg4
F0.17911100387573242
sg5
I43
sa(dp1717
g2
F0.00017118453979492188
sg3
I7
sg4
F0.31079983711242676
sg5
I43
sa(dp1718
g2
F0.00017595291137695312
sg3
I8
sg4
F0.3608739376068115
sg5
I43
sa(dp1719
g2
F0.00020194053649902344
sg3
I9
sg4
F0.6444380283355713
sg5
I43
sa(dp1720
g2
F0.00015115737915039062
sg3
I10
sg4
F1.2693800926208496
sg5
I43
sa(dp1721
g2
F0.00017213821411132812
sg3
I11
sg4
F0.9046740531921387
sg5
I43
sa(dp1722
g2
F0.00019884109497070312
sg3
I12
sg4
F0.745333194732666
sg5
I43
sa(dp1723
g2
F0.00015592575073242188
sg3
I13
sg4
F0.9537661075592041
sg5
I43
sa(dp1724
g2
F0.00023102760314941406
sg3
I14
sg4
F1.85874605178833
sg5
I43
sa(dp1725
g2
F0.00018215179443359375
sg3
I15
sg4
F1.0679409503936768
sg5
I43
sa(dp1726
g2
F0.00018906593322753906
sg3
I16
sg4
F1.3537569046020508
sg5
I43
sa(dp1727
g2
F0.0002040863037109375
sg3
I17
sg4
F2.0285279750823975
sg5
I43
sa(dp1728
g2
F0.00024819374084472656
sg3
I18
sg4
F1.9959099292755127
sg5
I43
sa(dp1729
g2
F0.00016307830810546875
sg3
I19
sg4
F1.616063117980957
sg5
I43
sa(dp1730
g2
F0.00016880035400390625
sg3
I20
sg4
F1.5905749797821045
sg5
I43
sa(dp1731
g2
F0.00019693374633789062
sg3
I21
sg4
F2.685124158859253
sg5
I43
sa(dp1732
g2
F0.00018095970153808594
sg3
I22
sg4
F2.8496639728546143
sg5
I43
sa(dp1733
g2
F0.00028705596923828125
sg3
I23
sg4
F2.877995014190674
sg5
I43
sa(dp1734
g2
F0.00021696090698242188
sg3
I24
sg4
F3.254485845565796
sg5
I43
sa(dp1735
g2
F0.00021791458129882812
sg3
I25
sg4
F3.1496901512145996
sg5
I43
sa(dp1736
g2
F0.0002040863037109375
sg3
I26
sg4
F2.305556058883667
sg5
I43
sa(dp1737
g2
F0.00020599365234375
sg3
I27
sg4
F3.6806881427764893
sg5
I43
sa(dp1738
g2
F0.00026917457580566406
sg3
I28
sg4
F3.901057004928589
sg5
I43
sa(dp1739
g2
F0.00019598007202148438
sg3
I29
sg4
F3.907745122909546
sg5
I43
sa(dp1740
g2
F0.00021004676818847656
sg3
I30
sg4
F4.051732063293457
sg5
I43
sa(dp1741
g2
F0.00022101402282714844
sg3
I31
sg4
F3.2242889404296875
sg5
I43
sa(dp1742
g2
F0.00018787384033203125
sg3
I32
sg4
F4.951843023300171
sg5
I43
sa(dp1743
g2
F0.0002219676971435547
sg3
I33
sg4
F6.156753063201904
sg5
I43
sa(dp1744
g2
F0.00021696090698242188
sg3
I34
sg4
F3.6687099933624268
sg5
I43
sa(dp1745
g2
F0.00019407272338867188
sg3
I35
sg4
F4.229734897613525
sg5
I43
sa(dp1746
g2
F0.00021600723266601562
sg3
I36
sg4
F6.001379013061523
sg5
I43
sa(dp1747
g2
F0.0002589225769042969
sg3
I37
sg4
F5.743595123291016
sg5
I43
sa(dp1748
g2
F0.00023794174194335938
sg3
I38
sg4
F4.849322080612183
sg5
I43
sa(dp1749
g2
F0.0002498626708984375
sg3
I39
sg4
F6.248375177383423
sg5
I43
sa(dp1750
g2
F0.00023603439331054688
sg3
I40
sg4
F5.507054090499878
sg5
I43
sa(dp1751
g2
F0.0002460479736328125
sg3
I41
sg4
F6.334122180938721
sg5
I43
sa(dp1752
g2
F0.00023102760314941406
sg3
I42
sg4
F5.4551708698272705
sg5
I43
sa(dp1753
g2
F0.0002689361572265625
sg3
I43
sg4
F6.2913689613342285
sg5
I43
sa(dp1754
g2
F0.00021505355834960938
sg3
I44
sg4
F5.6437602043151855
sg5
I43
sa(dp1755
g2
F0.00025200843811035156
sg3
I45
sg4
F5.4820380210876465
sg5
I43
sa(dp1756
g2
F0.0002760887145996094
sg3
I46
sg4
F5.573246002197266
sg5
I43
sa(dp1757
g2
F0.0002319812774658203
sg3
I47
sg4
F9.713819026947021
sg5
I43
sa(dp1758
g2
F0.00030684471130371094
sg3
I48
sg4
F7.907119035720825
sg5
I43
sa(dp1759
g2
F0.00026702880859375
sg3
I49
sg4
F10.545331954956055
sg5
I43
sa(dp1760
g2
F0.00017213821411132812
sg3
I5
sg4
F0.1600790023803711
sg5
I44
sa(dp1761
g2
F0.0001678466796875
sg3
I6
sg4
F0.4101109504699707
sg5
I44
sa(dp1762
g2
F0.00021409988403320312
sg3
I7
sg4
F0.419842004776001
sg5
I44
sa(dp1763
g2
F0.000164031982421875
sg3
I8
sg4
F0.5653009414672852
sg5
I44
sa(dp1764
g2
F0.0001678466796875
sg3
I9
sg4
F0.5983901023864746
sg5
I44
sa(dp1765
g2
F0.0001659393310546875
sg3
I10
sg4
F0.598607063293457
sg5
I44
sa(dp1766
g2
F0.00016379356384277344
sg3
I11
sg4
F0.799872875213623
sg5
I44
sa(dp1767
g2
F0.00022912025451660156
sg3
I12
sg4
F0.8111028671264648
sg5
I44
sa(dp1768
g2
F0.00017499923706054688
sg3
I13
sg4
F0.9558720588684082
sg5
I44
sa(dp1769
g2
F0.0001590251922607422
sg3
I14
sg4
F1.2834570407867432
sg5
I44
sa(dp1770
g2
F0.00022411346435546875
sg3
I15
sg4
F1.0818150043487549
sg5
I44
sa(dp1771
g2
F0.0001900196075439453
sg3
I16
sg4
F1.0379860401153564
sg5
I44
sa(dp1772
g2
F0.00020313262939453125
sg3
I17
sg4
F1.4288530349731445
sg5
I44
sa(dp1773
g2
F0.00020003318786621094
sg3
I18
sg4
F1.4037020206451416
sg5
I44
sa(dp1774
g2
F0.0002200603485107422
sg3
I19
sg4
F2.265486001968384
sg5
I44
sa(dp1775
g2
F0.0001990795135498047
sg3
I20
sg4
F1.787466049194336
sg5
I44
sa(dp1776
g2
F0.00022101402282714844
sg3
I21
sg4
F1.7069191932678223
sg5
I44
sa(dp1777
g2
F0.00023984909057617188
sg3
I22
sg4
F2.284010887145996
sg5
I44
sa(dp1778
g2
F0.0001850128173828125
sg3
I23
sg4
F1.811305046081543
sg5
I44
sa(dp1779
g2
F0.00021600723266601562
sg3
I24
sg4
F2.613279104232788
sg5
I44
sa(dp1780
g2
F0.00021409988403320312
sg3
I25
sg4
F2.6000449657440186
sg5
I44
sa(dp1781
g2
F0.00023221969604492188
sg3
I26
sg4
F2.4152050018310547
sg5
I44
sa(dp1782
g2
F0.000225067138671875
sg3
I27
sg4
F2.5728039741516113
sg5
I44
sa(dp1783
g2
F0.0002110004425048828
sg3
I28
sg4
F4.25178599357605
sg5
I44
sa(dp1784
g2
F0.00026416778564453125
sg3
I29
sg4
F2.763974905014038
sg5
I44
sa(dp1785
g2
F0.0001990795135498047
sg3
I30
sg4
F3.618000030517578
sg5
I44
sa(dp1786
g2
F0.00021910667419433594
sg3
I31
sg4
F3.753257989883423
sg5
I44
sa(dp1787
g2
F0.00023102760314941406
sg3
I32
sg4
F3.5900509357452393
sg5
I44
sa(dp1788
g2
F0.00022411346435546875
sg3
I33
sg4
F3.7785050868988037
sg5
I44
sa(dp1789
g2
F0.0002129077911376953
sg3
I34
sg4
F5.800693035125732
sg5
I44
sa(dp1790
g2
F0.0002548694610595703
sg3
I35
sg4
F4.91449499130249
sg5
I44
sa(dp1791
g2
F0.00025200843811035156
sg3
I36
sg4
F6.046734094619751
sg5
I44
sa(dp1792
g2
F0.00024700164794921875
sg3
I37
sg4
F5.965967893600464
sg5
I44
sa(dp1793
g2
F0.0002269744873046875
sg3
I38
sg4
F5.218063116073608
sg5
I44
sa(dp1794
g2
F0.00022602081298828125
sg3
I39
sg4
F4.887758016586304
sg5
I44
sa(dp1795
g2
F0.00024199485778808594
sg3
I40
sg4
F4.731452941894531
sg5
I44
sa(dp1796
g2
F0.00022602081298828125
sg3
I41
sg4
F6.4851720333099365
sg5
I44
sa(dp1797
g2
F0.0002589225769042969
sg3
I42
sg4
F5.465209007263184
sg5
I44
sa(dp1798
g2
F0.0003159046173095703
sg3
I43
sg4
F5.761108160018921
sg5
I44
sa(dp1799
g2
F0.000263214111328125
sg3
I44
sg4
F8.099195957183838
sg5
I44
sa(dp1800
g2
F0.0002429485321044922
sg3
I45
sg4
F7.078842878341675
sg5
I44
sa(dp1801
g2
F0.0002589225769042969
sg3
I46
sg4
F8.19884204864502
sg5
I44
sa(dp1802
g2
F0.0002579689025878906
sg3
I47
sg4
F5.799547910690308
sg5
I44
sa(dp1803
g2
F0.00023603439331054688
sg3
I48
sg4
F10.173815965652466
sg5
I44
sa(dp1804
g2
F0.0002720355987548828
sg3
I49
sg4
F7.831446170806885
sg5
I44
sa(dp1805
g2
F0.00017499923706054688
sg3
I5
sg4
F0.26375699043273926
sg5
I45
sa(dp1806
g2
F0.0001609325408935547
sg3
I6
sg4
F0.38930487632751465
sg5
I45
sa(dp1807
g2
F0.00017380714416503906
sg3
I7
sg4
F0.32880282402038574
sg5
I45
sa(dp1808
g2
F0.0001430511474609375
sg3
I8
sg4
F0.44320201873779297
sg5
I45
sa(dp1809
g2
F0.00014090538024902344
sg3
I9
sg4
F0.4619431495666504
sg5
I45
sa(dp1810
g2
F0.00019693374633789062
sg3
I10
sg4
F0.5426390171051025
sg5
I45
sa(dp1811
g2
F0.00022292137145996094
sg3
I11
sg4
F0.8273839950561523
sg5
I45
sa(dp1812
g2
F0.00018215179443359375
sg3
I12
sg4
F0.8661918640136719
sg5
I45
sa(dp1813
g2
F0.00024199485778808594
sg3
I13
sg4
F0.7937099933624268
sg5
I45
sa(dp1814
g2
F0.0001800060272216797
sg3
I14
sg4
F1.2431509494781494
sg5
I45
sa(dp1815
g2
F0.00018405914306640625
sg3
I15
sg4
F1.5647358894348145
sg5
I45
sa(dp1816
g2
F0.00017309188842773438
sg3
I16
sg4
F1.3873229026794434
sg5
I45
sa(dp1817
g2
F0.0001728534698486328
sg3
I17
sg4
F1.1339261531829834
sg5
I45
sa(dp1818
g2
F0.0002238750457763672
sg3
I18
sg4
F1.9268720149993896
sg5
I45
sa(dp1819
g2
F0.00021791458129882812
sg3
I19
sg4
F1.7384941577911377
sg5
I45
sa(dp1820
g2
F0.00020503997802734375
sg3
I20
sg4
F2.32686185836792
sg5
I45
sa(dp1821
g2
F0.00020003318786621094
sg3
I21
sg4
F1.8696861267089844
sg5
I45
sa(dp1822
g2
F0.0002009868621826172
sg3
I22
sg4
F2.075942039489746
sg5
I45
sa(dp1823
g2
F0.000202178955078125
sg3
I23
sg4
F2.156425952911377
sg5
I45
sa(dp1824
g2
F0.00019407272338867188
sg3
I24
sg4
F4.013679027557373
sg5
I45
sa(dp1825
g2
F0.0001900196075439453
sg3
I25
sg4
F2.9361231327056885
sg5
I45
sa(dp1826
g2
F0.00019598007202148438
sg3
I26
sg4
F3.514803886413574
sg5
I45
sa(dp1827
g2
F0.00019311904907226562
sg3
I27
sg4
F2.801687002182007
sg5
I45
sa(dp1828
g2
F0.0001819133758544922
sg3
I28
sg4
F3.985603094100952
sg5
I45
sa(dp1829
g2
F0.0002598762512207031
sg3
I29
sg4
F2.4377458095550537
sg5
I45
sa(dp1830
g2
F0.00018906593322753906
sg3
I30
sg4
F3.2849340438842773
sg5
I45
sa(dp1831
g2
F0.00023102760314941406
sg3
I31
sg4
F3.1469318866729736
sg5
I45
sa(dp1832
g2
F0.00019598007202148438
sg3
I32
sg4
F4.743236780166626
sg5
I45
sa(dp1833
g2
F0.0002849102020263672
sg3
I33
sg4
F4.086855888366699
sg5
I45
sa(dp1834
g2
F0.0001938343048095703
sg3
I34
sg4
F3.727659225463867
sg5
I45
sa(dp1835
g2
F0.0002448558807373047
sg3
I35
sg4
F5.146746873855591
sg5
I45
sa(dp1836
g2
F0.0002269744873046875
sg3
I36
sg4
F5.288957118988037
sg5
I45
sa(dp1837
g2
F0.00019502639770507812
sg3
I37
sg4
F5.953368186950684
sg5
I45
sa(dp1838
g2
F0.00028777122497558594
sg3
I38
sg4
F6.320868015289307
sg5
I45
sa(dp1839
g2
F0.00024890899658203125
sg3
I39
sg4
F4.309207916259766
sg5
I45
sa(dp1840
g2
F0.00026297569274902344
sg3
I40
sg4
F5.042370080947876
sg5
I45
sa(dp1841
g2
F0.0003180503845214844
sg3
I41
sg4
F5.231220006942749
sg5
I45
sa(dp1842
g2
F0.0002930164337158203
sg3
I42
sg4
F6.178522109985352
sg5
I45
sa(dp1843
g2
F0.00025081634521484375
sg3
I43
sg4
F4.597158908843994
sg5
I45
sa(dp1844
g2
F0.00023412704467773438
sg3
I44
sg4
F5.567825078964233
sg5
I45
sa(dp1845
g2
F0.000244140625
sg3
I45
sg4
F8.858000993728638
sg5
I45
sa(dp1846
g2
F0.00027298927307128906
sg3
I46
sg4
F7.423156976699829
sg5
I45
sa(dp1847
g2
F0.00023484230041503906
sg3
I47
sg4
F8.80942702293396
sg5
I45
sa(dp1848
g2
F0.00025916099548339844
sg3
I48
sg4
F8.628783941268921
sg5
I45
sa(dp1849
g2
F0.0002770423889160156
sg3
I49
sg4
F7.1544129848480225
sg5
I45
sa(dp1850
g2
F0.0001938343048095703
sg3
I5
sg4
F0.31383609771728516
sg5
I46
sa(dp1851
g2
F0.00017213821411132812
sg3
I6
sg4
F0.3018510341644287
sg5
I46
sa(dp1852
g2
F0.00013494491577148438
sg3
I7
sg4
F0.1890418529510498
sg5
I46
sa(dp1853
g2
F0.00017786026000976562
sg3
I8
sg4
F0.38486719131469727
sg5
I46
sa(dp1854
g2
F0.00020003318786621094
sg3
I9
sg4
F0.3897891044616699
sg5
I46
sa(dp1855
g2
F0.00014901161193847656
sg3
I10
sg4
F0.7707231044769287
sg5
I46
sa(dp1856
g2
F0.00019097328186035156
sg3
I11
sg4
F0.6007058620452881
sg5
I46
sa(dp1857
g2
F0.00018405914306640625
sg3
I12
sg4
F0.8175480365753174
sg5
I46
sa(dp1858
g2
F0.0001571178436279297
sg3
I13
sg4
F1.1428558826446533
sg5
I46
sa(dp1859
g2
F0.00018596649169921875
sg3
I14
sg4
F1.8218259811401367
sg5
I46
sa(dp1860
g2
F0.0001990795135498047
sg3
I15
sg4
F2.409533977508545
sg5
I46
sa(dp1861
g2
F0.0001659393310546875
sg3
I16
sg4
F1.1678600311279297
sg5
I46
sa(dp1862
g2
F0.00019097328186035156
sg3
I17
sg4
F1.6601219177246094
sg5
I46
sa(dp1863
g2
F0.0001850128173828125
sg3
I18
sg4
F1.4096379280090332
sg5
I46
sa(dp1864
g2
F0.00023102760314941406
sg3
I19
sg4
F2.107461929321289
sg5
I46
sa(dp1865
g2
F0.00018787384033203125
sg3
I20
sg4
F2.423140048980713
sg5
I46
sa(dp1866
g2
F0.0002009868621826172
sg3
I21
sg4
F2.0878920555114746
sg5
I46
sa(dp1867
g2
F0.0002009868621826172
sg3
I22
sg4
F2.2520341873168945
sg5
I46
sa(dp1868
g2
F0.0002257823944091797
sg3
I23
sg4
F2.5285098552703857
sg5
I46
sa(dp1869
g2
F0.00018715858459472656
sg3
I24
sg4
F3.265803813934326
sg5
I46
sa(dp1870
g2
F0.0002589225769042969
sg3
I25
sg4
F3.486603021621704
sg5
I46
sa(dp1871
g2
F0.00019598007202148438
sg3
I26
sg4
F4.601315975189209
sg5
I46
sa(dp1872
g2
F0.00022411346435546875
sg3
I27
sg4
F3.1688530445098877
sg5
I46
sa(dp1873
g2
F0.00022220611572265625
sg3
I28
sg4
F4.118253946304321
sg5
I46
sa(dp1874
g2
F0.00022983551025390625
sg3
I29
sg4
F4.532962083816528
sg5
I46
sa(dp1875
g2
F0.0002970695495605469
sg3
I30
sg4
F4.424787998199463
sg5
I46
sa(dp1876
g2
F0.00024580955505371094
sg3
I31
sg4
F4.123629808425903
sg5
I46
sa(dp1877
g2
F0.0002448558807373047
sg3
I32
sg4
F3.328537940979004
sg5
I46
sa(dp1878
g2
F0.00021910667419433594
sg3
I33
sg4
F3.0823659896850586
sg5
I46
sa(dp1879
g2
F0.00023102760314941406
sg3
I34
sg4
F4.0323710441589355
sg5
I46
sa(dp1880
g2
F0.0002617835998535156
sg3
I35
sg4
F4.98359489440918
sg5
I46
sa(dp1881
g2
F0.00024509429931640625
sg3
I36
sg4
F5.444671869277954
sg5
I46
sa(dp1882
g2
F0.00022101402282714844
sg3
I37
sg4
F4.978763103485107
sg5
I46
sa(dp1883
g2
F0.00025010108947753906
sg3
I38
sg4
F4.447184085845947
sg5
I46
sa(dp1884
g2
F0.00024700164794921875
sg3
I39
sg4
F4.688278913497925
sg5
I46
sa(dp1885
g2
F0.00026798248291015625
sg3
I40
sg4
F7.847136974334717
sg5
I46
sa(dp1886
g2
F0.00023317337036132812
sg3
I41
sg4
F4.814929008483887
sg5
I46
sa(dp1887
g2
F0.00028705596923828125
sg3
I42
sg4
F9.09296989440918
sg5
I46
sa(dp1888
g2
F0.0002739429473876953
sg3
I43
sg4
F7.855096101760864
sg5
I46
sa(dp1889
g2
F0.0002529621124267578
sg3
I44
sg4
F7.002725124359131
sg5
I46
sa(dp1890
g2
F0.00025010108947753906
sg3
I45
sg4
F10.578957080841064
sg5
I46
sa(dp1891
g2
F0.00026798248291015625
sg3
I46
sg4
F8.491279125213623
sg5
I46
sa(dp1892
g2
F0.0002779960632324219
sg3
I47
sg4
F8.838449954986572
sg5
I46
sa(dp1893
g2
F0.00030803680419921875
sg3
I48
sg4
F11.052468061447144
sg5
I46
sa(dp1894
g2
F0.0003020763397216797
sg3
I49
sg4
F8.069998979568481
sg5
I46
sa(dp1895
g2
F0.0003139972686767578
sg3
I5
sg4
F0.21417689323425293
sg5
I47
sa(dp1896
g2
F0.00023484230041503906
sg3
I6
sg4
F0.2879219055175781
sg5
I47
sa(dp1897
g2
F0.00016689300537109375
sg3
I7
sg4
F0.25894618034362793
sg5
I47
sa(dp1898
g2
F0.000164031982421875
sg3
I8
sg4
F0.4451558589935303
sg5
I47
sa(dp1899
g2
F0.0002319812774658203
sg3
I9
sg4
F0.37802791595458984
sg5
I47
sa(dp1900
g2
F0.00019502639770507812
sg3
I10
sg4
F0.4582650661468506
sg5
I47
sa(dp1901
g2
F0.0002238750457763672
sg3
I11
sg4
F0.9529581069946289
sg5
I47
sa(dp1902
g2
F0.00018095970153808594
sg3
I12
sg4
F0.9458179473876953
sg5
I47
sa(dp1903
g2
F0.0003101825714111328
sg3
I13
sg4
F1.1313669681549072
sg5
I47
sa(dp1904
g2
F0.00022292137145996094
sg3
I14
sg4
F0.851341962814331
sg5
I47
sa(dp1905
g2
F0.00019478797912597656
sg3
I15
sg4
F1.5483698844909668
sg5
I47
sa(dp1906
g2
F0.00019788742065429688
sg3
I16
sg4
F1.5168709754943848
sg5
I47
sa(dp1907
g2
F0.00018715858459472656
sg3
I17
sg4
F2.7904858589172363
sg5
I47
sa(dp1908
g2
F0.00019812583923339844
sg3
I18
sg4
F2.164436101913452
sg5
I47
sa(dp1909
g2
F0.00021886825561523438
sg3
I19
sg4
F1.4718570709228516
sg5
I47
sa(dp1910
g2
F0.00019598007202148438
sg3
I20
sg4
F2.4211959838867188
sg5
I47
sa(dp1911
g2
F0.0003521442413330078
sg3
I21
sg4
F3.573556900024414
sg5
I47
sa(dp1912
g2
F0.0001709461212158203
sg3
I22
sg4
F2.3451969623565674
sg5
I47
sa(dp1913
g2
F0.00033593177795410156
sg3
I23
sg4
F2.776242971420288
sg5
I47
sa(dp1914
g2
F0.00020384788513183594
sg3
I24
sg4
F3.457932949066162
sg5
I47
sa(dp1915
g2
F0.0002009868621826172
sg3
I25
sg4
F3.279390811920166
sg5
I47
sa(dp1916
g2
F0.00024199485778808594
sg3
I26
sg4
F3.4385600090026855
sg5
I47
sa(dp1917
g2
F0.0002009868621826172
sg3
I27
sg4
F2.7691009044647217
sg5
I47
sa(dp1918
g2
F0.0002810955047607422
sg3
I28
sg4
F2.6436939239501953
sg5
I47
sa(dp1919
g2
F0.00021409988403320312
sg3
I29
sg4
F4.470160961151123
sg5
I47
sa(dp1920
g2
F0.00021910667419433594
sg3
I30
sg4
F4.798793077468872
sg5
I47
sa(dp1921
g2
F0.00026917457580566406
sg3
I31
sg4
F3.0661978721618652
sg5
I47
sa(dp1922
g2
F0.00022220611572265625
sg3
I32
sg4
F5.660295009613037
sg5
I47
sa(dp1923
g2
F0.0002551078796386719
sg3
I33
sg4
F4.624849081039429
sg5
I47
sa(dp1924
g2
F0.00023889541625976562
sg3
I34
sg4
F4.813634157180786
sg5
I47
sa(dp1925
g2
F0.00026297569274902344
sg3
I35
sg4
F4.5346550941467285
sg5
I47
sa(dp1926
g2
F0.00022411346435546875
sg3
I36
sg4
F4.997713088989258
sg5
I47
sa(dp1927
g2
F0.00023698806762695312
sg3
I37
sg4
F4.7531352043151855
sg5
I47
sa(dp1928
g2
F0.0002961158752441406
sg3
I38
sg4
F6.154409885406494
sg5
I47
sa(dp1929
g2
F0.0002579689025878906
sg3
I39
sg4
F6.762415170669556
sg5
I47
sa(dp1930
g2
F0.0002799034118652344
sg3
I40
sg4
F6.35660719871521
sg5
I47
sa(dp1931
g2
F0.0002758502960205078
sg3
I41
sg4
F6.250749111175537
sg5
I47
sa(dp1932
g2
F0.0002510547637939453
sg3
I42
sg4
F9.904217004776001
sg5
I47
sa(dp1933
g2
F0.00024318695068359375
sg3
I43
sg4
F10.154630899429321
sg5
I47
sa(dp1934
g2
F0.00033783912658691406
sg3
I44
sg4
F6.130805015563965
sg5
I47
sa(dp1935
g2
F0.0003058910369873047
sg3
I45
sg4
F8.634472131729126
sg5
I47
sa(dp1936
g2
F0.00026297569274902344
sg3
I46
sg4
F7.450738191604614
sg5
I47
sa(dp1937
g2
F0.00030684471130371094
sg3
I47
sg4
F7.441457986831665
sg5
I47
sa(dp1938
g2
F0.0002808570861816406
sg3
I48
sg4
F8.977926969528198
sg5
I47
sa(dp1939
g2
F0.0002639293670654297
sg3
I49
sg4
F8.939078092575073
sg5
I47
sa(dp1940
g2
F0.00021600723266601562
sg3
I5
sg4
F0.19692611694335938
sg5
I48
sa(dp1941
g2
F0.0001609325408935547
sg3
I6
sg4
F0.3359239101409912
sg5
I48
sa(dp1942
g2
F0.0001659393310546875
sg3
I7
sg4
F0.550868034362793
sg5
I48
sa(dp1943
g2
F0.0001678466796875
sg3
I8
sg4
F0.6133990287780762
sg5
I48
sa(dp1944
g2
F0.00017309188842773438
sg3
I9
sg4
F0.5753779411315918
sg5
I48
sa(dp1945
g2
F0.00017499923706054688
sg3
I10
sg4
F0.9493708610534668
sg5
I48
sa(dp1946
g2
F0.00020694732666015625
sg3
I11
sg4
F0.876072883605957
sg5
I48
sa(dp1947
g2
F0.0001800060272216797
sg3
I12
sg4
F1.0548510551452637
sg5
I48
sa(dp1948
g2
F0.0002789497375488281
sg3
I13
sg4
F0.8440229892730713
sg5
I48
sa(dp1949
g2
F0.00018906593322753906
sg3
I14
sg4
F1.239109992980957
sg5
I48
sa(dp1950
g2
F0.00022482872009277344
sg3
I15
sg4
F1.5160458087921143
sg5
I48
sa(dp1951
g2
F0.00018596649169921875
sg3
I16
sg4
F1.2351601123809814
sg5
I48
sa(dp1952
g2
F0.000225067138671875
sg3
I17
sg4
F1.6878721714019775
sg5
I48
sa(dp1953
g2
F0.00019693374633789062
sg3
I18
sg4
F1.5166962146759033
sg5
I48
sa(dp1954
g2
F0.0002110004425048828
sg3
I19
sg4
F1.8798868656158447
sg5
I48
sa(dp1955
g2
F0.0002090930938720703
sg3
I20
sg4
F1.5074529647827148
sg5
I48
sa(dp1956
g2
F0.00023412704467773438
sg3
I21
sg4
F2.0472888946533203
sg5
I48
sa(dp1957
g2
F0.00021791458129882812
sg3
I22
sg4
F2.1398980617523193
sg5
I48
sa(dp1958
g2
F0.00021696090698242188
sg3
I23
sg4
F2.9063801765441895
sg5
I48
sa(dp1959
g2
F0.00020503997802734375
sg3
I24
sg4
F3.205626964569092
sg5
I48
sa(dp1960
g2
F0.00023818016052246094
sg3
I25
sg4
F2.684579849243164
sg5
I48
sa(dp1961
g2
F0.00023794174194335938
sg3
I26
sg4
F3.3186049461364746
sg5
I48
sa(dp1962
g2
F0.00025391578674316406
sg3
I27
sg4
F3.007355213165283
sg5
I48
sa(dp1963
g2
F0.00023102760314941406
sg3
I28
sg4
F4.1415770053863525
sg5
I48
sa(dp1964
g2
F0.0002110004425048828
sg3
I29
sg4
F3.6466000080108643
sg5
I48
sa(dp1965
g2
F0.0002338886260986328
sg3
I30
sg4
F4.165090799331665
sg5
I48
sa(dp1966
g2
F0.00023293495178222656
sg3
I31
sg4
F4.694786071777344
sg5
I48
sa(dp1967
g2
F0.00021886825561523438
sg3
I32
sg4
F5.507722854614258
sg5
I48
sa(dp1968
g2
F0.00028204917907714844
sg3
I33
sg4
F4.825780868530273
sg5
I48
sa(dp1969
g2
F0.00023603439331054688
sg3
I34
sg4
F4.4575889110565186
sg5
I48
sa(dp1970
g2
F0.00021004676818847656
sg3
I35
sg4
F4.422994136810303
sg5
I48
sa(dp1971
g2
F0.0002410411834716797
sg3
I36
sg4
F6.1531360149383545
sg5
I48
sa(dp1972
g2
F0.00025010108947753906
sg3
I37
sg4
F5.592692852020264
sg5
I48
sa(dp1973
g2
F0.00028395652770996094
sg3
I38
sg4
F6.620105981826782
sg5
I48
sa(dp1974
g2
F0.00024199485778808594
sg3
I39
sg4
F4.991909027099609
sg5
I48
sa(dp1975
g2
F0.0003077983856201172
sg3
I40
sg4
F7.083953857421875
sg5
I48
sa(dp1976
g2
F0.00024390220642089844
sg3
I41
sg4
F5.540407180786133
sg5
I48
sa(dp1977
g2
F0.00025081634521484375
sg3
I42
sg4
F5.654355764389038
sg5
I48
sa(dp1978
g2
F0.0003008842468261719
sg3
I43
sg4
F6.476176977157593
sg5
I48
sa(dp1979
g2
F0.0002589225769042969
sg3
I44
sg4
F9.531553983688354
sg5
I48
sa(dp1980
g2
F0.00029206275939941406
sg3
I45
sg4
F10.488525152206421
sg5
I48
sa(dp1981
g2
F0.0002689361572265625
sg3
I46
sg4
F6.342716932296753
sg5
I48
sa(dp1982
g2
F0.0002589225769042969
sg3
I47
sg4
F6.329866170883179
sg5
I48
sa(dp1983
g2
F0.0002620220184326172
sg3
I48
sg4
F7.535907983779907
sg5
I48
sa(dp1984
g2
F0.0003170967102050781
sg3
I49
sg4
F11.801682949066162
sg5
I48
sa(dp1985
g2
F0.00022101402282714844
sg3
I5
sg4
F0.10132694244384766
sg5
I49
sa(dp1986
g2
F0.00021004676818847656
sg3
I6
sg4
F0.3838331699371338
sg5
I49
sa(dp1987
g2
F0.0001690387725830078
sg3
I7
sg4
F0.6174299716949463
sg5
I49
sa(dp1988
g2
F0.0002048015594482422
sg3
I8
sg4
F0.39205479621887207
sg5
I49
sa(dp1989
g2
F0.0001690387725830078
sg3
I9
sg4
F0.5309550762176514
sg5
I49
sa(dp1990
g2
F0.0001850128173828125
sg3
I10
sg4
F1.1431150436401367
sg5
I49
sa(dp1991
g2
F0.00017309188842773438
sg3
I11
sg4
F0.752687931060791
sg5
I49
sa(dp1992
g2
F0.00021910667419433594
sg3
I12
sg4
F0.7569351196289062
sg5
I49
sa(dp1993
g2
F0.00019693374633789062
sg3
I13
sg4
F0.6151561737060547
sg5
I49
sa(dp1994
g2
F0.00019812583923339844
sg3
I14
sg4
F1.0914249420166016
sg5
I49
sa(dp1995
g2
F0.0001881122589111328
sg3
I15
sg4
F0.8844139575958252
sg5
I49
sa(dp1996
g2
F0.00017213821411132812
sg3
I16
sg4
F2.7651989459991455
sg5
I49
sa(dp1997
g2
F0.0002129077911376953
sg3
I17
sg4
F1.6791069507598877
sg5
I49
sa(dp1998
g2
F0.00021004676818847656
sg3
I18
sg4
F1.9708640575408936
sg5
I49
sa(dp1999
g2
F0.0002040863037109375
sg3
I19
sg4
F1.9773650169372559
sg5
I49
sa(dp2000
g2
F0.0002818107604980469
sg3
I20
sg4
F2.611008882522583
sg5
I49
sa(dp2001
g2
F0.00022602081298828125
sg3
I21
sg4
F2.0444788932800293
sg5
I49
sa(dp2002
g2
F0.00023818016052246094
sg3
I22
sg4
F2.349404811859131
sg5
I49
sa(dp2003
g2
F0.00021004676818847656
sg3
I23
sg4
F2.384209156036377
sg5
I49
sa(dp2004
g2
F0.00022101402282714844
sg3
I24
sg4
F2.5119659900665283
sg5
I49
sa(dp2005
g2
F0.00022602081298828125
sg3
I25
sg4
F2.6648149490356445
sg5
I49
sa(dp2006
g2
F0.00022602081298828125
sg3
I26
sg4
F3.5343098640441895
sg5
I49
sa(dp2007
g2
F0.0002231597900390625
sg3
I27
sg4
F5.467036962509155
sg5
I49
sa(dp2008
g2
F0.0002429485321044922
sg3
I28
sg4
F3.443614959716797
sg5
I49
sa(dp2009
g2
F0.0002751350402832031
sg3
I29
sg4
F3.8809900283813477
sg5
I49
sa(dp2010
g2
F0.00022983551025390625
sg3
I30
sg4
F4.698242902755737
sg5
I49
sa(dp2011
g2
F0.00024700164794921875
sg3
I31
sg4
F4.626449823379517
sg5
I49
sa(dp2012
g2
F0.00023889541625976562
sg3
I32
sg4
F5.1210618019104
sg5
I49
sa(dp2013
g2
F0.0002639293670654297
sg3
I33
sg4
F6.390902996063232
sg5
I49
sa(dp2014
g2
F0.0002238750457763672
sg3
I34
sg4
F4.223160982131958
sg5
I49
sa(dp2015
g2
F0.0002410411834716797
sg3
I35
sg4
F4.255859136581421
sg5
I49
sa(dp2016
g2
F0.00023698806762695312
sg3
I36
sg4
F4.690371036529541
sg5
I49
sa(dp2017
g2
F0.000244140625
sg3
I37
sg4
F6.129406929016113
sg5
I49
sa(dp2018
g2
F0.0002498626708984375
sg3
I38
sg4
F5.233942985534668
sg5
I49
sa(dp2019
g2
F0.0003428459167480469
sg3
I39
sg4
F5.428280830383301
sg5
I49
sa(dp2020
g2
F0.0002460479736328125
sg3
I40
sg4
F5.628054141998291
sg5
I49
sa(dp2021
g2
F0.00034689903259277344
sg3
I41
sg4
F9.784042119979858
sg5
I49
sa(dp2022
g2
F0.0002810955047607422
sg3
I42
sg4
F5.614975929260254
sg5
I49
sa(dp2023
g2
F0.00026106834411621094
sg3
I43
sg4
F6.81085205078125
sg5
I49
sa(dp2024
g2
F0.0002300739288330078
sg3
I44
sg4
F7.377498149871826
sg5
I49
sa(dp2025
g2
F0.00024199485778808594
sg3
I45
sg4
F8.911909103393555
sg5
I49
sa(dp2026
g2
F0.0002868175506591797
sg3
I46
sg4
F7.70706582069397
sg5
I49
sa(dp2027
g2
F0.0002620220184326172
sg3
I47
sg4
F8.290085792541504
sg5
I49
sa(dp2028
g2
F0.0003559589385986328
sg3
I48
sg4
F8.531589031219482
sg5
I49
sa(dp2029
g2
F0.0002930164337158203
sg3
I49
sg4
F12.148103952407837
sg5
I49
sa.